---
triple:          'arm64-apple-darwin'
binary-path:     '/Users/bhushanshrirame/MTP/Tomosulo_algorithm_singleton/main'
relocations:
  - { offsetInCU: 0xEAA3, offset: 0xEAA3, size: 0x8, addend: 0x0, symName: __ZStL8__ioinit, symObjAddr: 0x7C038, symBinAddr: 0x10001CD30, symSize: 0x0 }
  - { offsetInCU: 0xEEBF, offset: 0xEEBF, size: 0x8, addend: 0x0, symName: __ZL10Num_ADD_RS, symObjAddr: 0x9874, symBinAddr: 0x1000122D4, symSize: 0x0 }
  - { offsetInCU: 0xEED6, offset: 0xEED6, size: 0x8, addend: 0x0, symName: __ZL11Num_MULT_RS, symObjAddr: 0x9878, symBinAddr: 0x1000122D8, symSize: 0x0 }
  - { offsetInCU: 0xEEEC, offset: 0xEEEC, size: 0x8, addend: 0x0, symName: __ZL11Num_LOAD_RS, symObjAddr: 0x987C, symBinAddr: 0x1000122DC, symSize: 0x0 }
  - { offsetInCU: 0xEEFC, offset: 0xEEFC, size: 0x8, addend: 0x0, symName: __ZL5AddOp, symObjAddr: 0x9880, symBinAddr: 0x1000122E0, symSize: 0x0 }
  - { offsetInCU: 0xEF12, offset: 0xEF12, size: 0x8, addend: 0x0, symName: __ZL5SubOp, symObjAddr: 0x9884, symBinAddr: 0x1000122E4, symSize: 0x0 }
  - { offsetInCU: 0xEF29, offset: 0xEF29, size: 0x8, addend: 0x0, symName: __ZL6MultOp, symObjAddr: 0x9888, symBinAddr: 0x1000122E8, symSize: 0x0 }
  - { offsetInCU: 0xEF3E, offset: 0xEF3E, size: 0x8, addend: 0x0, symName: __ZL5DivOp, symObjAddr: 0x988C, symBinAddr: 0x1000122EC, symSize: 0x0 }
  - { offsetInCU: 0xEF55, offset: 0xEF55, size: 0x8, addend: 0x0, symName: __ZL6LoadOp, symObjAddr: 0x9890, symBinAddr: 0x1000122F0, symSize: 0x0 }
  - { offsetInCU: 0xEF6B, offset: 0xEF6B, size: 0x8, addend: 0x0, symName: __ZL6LoopOp, symObjAddr: 0x9894, symBinAddr: 0x1000122F4, symSize: 0x0 }
  - { offsetInCU: 0xEF84, offset: 0xEF84, size: 0x8, addend: 0x0, symName: __ZL9EndLoopOp, symObjAddr: 0x9898, symBinAddr: 0x1000122F8, symSize: 0x0 }
  - { offsetInCU: 0xEF98, offset: 0xEF98, size: 0x8, addend: 0x0, symName: __ZL7ADD_Lat, symObjAddr: 0x989C, symBinAddr: 0x1000122FC, symSize: 0x0 }
  - { offsetInCU: 0xEFAF, offset: 0xEFAF, size: 0x8, addend: 0x0, symName: __ZL8MULT_Lat, symObjAddr: 0x98A0, symBinAddr: 0x100012300, symSize: 0x0 }
  - { offsetInCU: 0xEFC5, offset: 0xEFC5, size: 0x8, addend: 0x0, symName: __ZL8Load_Lat, symObjAddr: 0x98A4, symBinAddr: 0x100012304, symSize: 0x0 }
  - { offsetInCU: 0xEFDA, offset: 0xEFDA, size: 0x8, addend: 0x0, symName: __ZL7DIV_Lat, symObjAddr: 0x98A8, symBinAddr: 0x100012308, symSize: 0x0 }
  - { offsetInCU: 0xEFEC, offset: 0xEFEC, size: 0x8, addend: 0x0, symName: __ZL9ISSUE_Lat, symObjAddr: 0x98AC, symBinAddr: 0x10001230C, symSize: 0x0 }
  - { offsetInCU: 0xF002, offset: 0xF002, size: 0x8, addend: 0x0, symName: __ZL13WRITEBACK_Lat, symObjAddr: 0x98B0, symBinAddr: 0x100012310, symSize: 0x0 }
  - { offsetInCU: 0xF01B, offset: 0xF01B, size: 0x8, addend: 0x0, symName: _Clock, symObjAddr: 0x7C03C, symBinAddr: 0x10001CD34, symSize: 0x0 }
  - { offsetInCU: 0xF030, offset: 0xF030, size: 0x8, addend: 0x0, symName: _Done, symObjAddr: 0x9900, symBinAddr: 0x10001CCF8, symSize: 0x0 }
  - { offsetInCU: 0xF052, offset: 0xF052, size: 0x8, addend: 0x0, symName: _Total_WRITEBACKS, symObjAddr: 0x7C040, symBinAddr: 0x10001CD38, symSize: 0x0 }
  - { offsetInCU: 0xF05B, offset: 0xF05B, size: 0x8, addend: 0x0, symName: _currentInst_ISSUE, symObjAddr: 0x7C044, symBinAddr: 0x10001CD3C, symSize: 0x0 }
  - { offsetInCU: 0xF070, offset: 0xF070, size: 0x8, addend: 0x0, symName: __ZL11operandInit, symObjAddr: 0x98B4, symBinAddr: 0x100012314, symSize: 0x0 }
  - { offsetInCU: 0xF091, offset: 0xF091, size: 0x8, addend: 0x0, symName: __ZL14RegStatusEmpty, symObjAddr: 0x98B8, symBinAddr: 0x100012318, symSize: 0x0 }
  - { offsetInCU: 0xF0A9, offset: 0xF0A9, size: 0x8, addend: 0x0, symName: __ZL16OperandAvailable, symObjAddr: 0x98BC, symBinAddr: 0x10001231C, symSize: 0x0 }
  - { offsetInCU: 0xF0BA, offset: 0xF0BA, size: 0x8, addend: 0x0, symName: __ZL11OperandInit, symObjAddr: 0x98C0, symBinAddr: 0x100012320, symSize: 0x0 }
  - { offsetInCU: 0xFBD2, offset: 0xFBD2, size: 0x8, addend: 0x0, symName: __GLOBAL__sub_I_main.cpp, symObjAddr: 0x9B8C, symBinAddr: 0x100010CDC, symSize: 0x14 }
  - { offsetInCU: 0xFBFB, offset: 0xFBFB, size: 0x8, addend: 0x0, symName: __Z41__static_initialization_and_destruction_0v, symObjAddr: 0x9B50, symBinAddr: 0x100010CA0, symSize: 0x3C }
  - { offsetInCU: 0xFBEB, offset: 0xFBEB, size: 0x8, addend: 0x0, symName: __ZNSt11__copy_moveILb0ELb0ESt26random_access_iterator_tagE12__assign_oneIiKiEEvPT_PT0_, symObjAddr: 0x96C0, symBinAddr: 0x100010C78, symSize: 0x28 }
  - { offsetInCU: 0xFC35, offset: 0xFC35, size: 0x8, addend: 0x0, symName: __ZNSt11__copy_moveILb0ELb1ESt26random_access_iterator_tagE8__copy_mIKiiEEPT0_PT_S7_S5_, symObjAddr: 0x9630, symBinAddr: 0x100010BE8, symSize: 0x90 }
  - { offsetInCU: 0xFCA5, offset: 0xFCA5, size: 0x8, addend: 0x0, symName: __ZSteqIP11InstructionEbRKSt13move_iteratorIT_ES6_, symObjAddr: 0x95F0, symBinAddr: 0x100010BA8, symSize: 0x40 }
  - { offsetInCU: 0xFCEA, offset: 0xFCEA, size: 0x8, addend: 0x0, symName: __ZNKSt13move_iteratorIP11InstructionE4baseEv, symObjAddr: 0x95D8, symBinAddr: 0x100010B90, symSize: 0x18 }
  - { offsetInCU: 0xFD0E, offset: 0xFD0E, size: 0x8, addend: 0x0, symName: __ZSt14__copy_move_a2ILb0EPKiPiET1_T0_S4_S3_, symObjAddr: 0x95AC, symBinAddr: 0x100010B64, symSize: 0x2C }
  - { offsetInCU: 0xFD76, offset: 0xFD76, size: 0x8, addend: 0x0, symName: __ZNK9__gnu_cxx17__normal_iteratorIPKiSt6vectorIiSaIiEEE4baseEv, symObjAddr: 0x9598, symBinAddr: 0x100010B50, symSize: 0x14 }
  - { offsetInCU: 0xFD9A, offset: 0xFD9A, size: 0x8, addend: 0x0, symName: __ZSt12__niter_baseIPKiET_S2_, symObjAddr: 0x9584, symBinAddr: 0x100010B3C, symSize: 0x14 }
  - { offsetInCU: 0xFDD1, offset: 0xFDD1, size: 0x8, addend: 0x0, symName: __ZSt7forwardIRK18ReservationStationEOT_RNSt16remove_referenceIS3_E4typeE, symObjAddr: 0x9570, symBinAddr: 0x100010B28, symSize: 0x14 }
  - { offsetInCU: 0xFE6E, offset: 0xFE6E, size: 0x8, addend: 0x0, symName: __ZSt7forwardINSt7__cxx1112basic_stringIcSt11char_traitsIcESaIcEEEEOT_RNSt16remove_referenceIS6_E4typeE, symObjAddr: 0x955C, symBinAddr: 0x100010B14, symSize: 0x14 }
  - { offsetInCU: 0xFE9E, offset: 0xFE9E, size: 0x8, addend: 0x0, symName: __ZSt10_ConstructI11InstructionJS0_EEvPT_DpOT0_, symObjAddr: 0x94FC, symBinAddr: 0x100010AB4, symSize: 0x60 }
  - { offsetInCU: 0xFEEB, offset: 0xFEEB, size: 0x8, addend: 0x0, symName: __ZNKSt13move_iteratorIP11InstructionEdeEv, symObjAddr: 0x94E4, symBinAddr: 0x100010A9C, symSize: 0x18 }
  - { offsetInCU: 0xFF13, offset: 0xFF13, size: 0x8, addend: 0x0, symName: __ZNSt13move_iteratorIP11InstructionEppEv, symObjAddr: 0x94BC, symBinAddr: 0x100010A74, symSize: 0x28 }
  - { offsetInCU: 0xFF37, offset: 0xFF37, size: 0x8, addend: 0x0, symName: __ZStneIP11InstructionEbRKSt13move_iteratorIT_ES6_, symObjAddr: 0x9490, symBinAddr: 0x100010A48, symSize: 0x2C }
  - { offsetInCU: 0xFF78, offset: 0xFF78, size: 0x8, addend: 0x0, symName: __ZNSt11__copy_moveILb1ELb0ESt26random_access_iterator_tagE12__assign_oneI11InstructionS3_EEvPT_PT0_, symObjAddr: 0x944C, symBinAddr: 0x100010A04, symSize: 0x44 }
  - { offsetInCU: 0xFFC8, offset: 0xFFC8, size: 0x8, addend: 0x0, symName: __ZSt7forwardIR11InstructionEOT_RNSt16remove_referenceIS2_E4typeE, symObjAddr: 0x9438, symBinAddr: 0x1000109F0, symSize: 0x14 }
  - { offsetInCU: 0xFFFE, offset: 0xFFFE, size: 0x8, addend: 0x0, symName: __ZSt7forwardIRK14RegisterStatusEOT_RNSt16remove_referenceIS3_E4typeE, symObjAddr: 0x9424, symBinAddr: 0x1000109DC, symSize: 0x14 }
  - { offsetInCU: 0x10032, offset: 0x10032, size: 0x8, addend: 0x0, symName: __ZNK9__gnu_cxx17__normal_iteratorIPK14RegisterStatusSt6vectorIS1_SaIS1_EEE4baseEv, symObjAddr: 0x9410, symBinAddr: 0x1000109C8, symSize: 0x14 }
  - { offsetInCU: 0x10056, offset: 0x10056, size: 0x8, addend: 0x0, symName: __ZSt12__niter_wrapIPiET_RKS1_S1_, symObjAddr: 0x93F8, symBinAddr: 0x1000109B0, symSize: 0x18 }
  - { offsetInCU: 0x10090, offset: 0x10090, size: 0x8, addend: 0x0, symName: __ZSt14__copy_move_a1ILb0EPKiPiET1_T0_S4_S3_, symObjAddr: 0x93CC, symBinAddr: 0x100010984, symSize: 0x2C }
  - { offsetInCU: 0x100F4, offset: 0x100F4, size: 0x8, addend: 0x0, symName: __ZSt12__niter_baseIPiET_S1_, symObjAddr: 0x93B8, symBinAddr: 0x100010970, symSize: 0x14 }
  - { offsetInCU: 0x10125, offset: 0x10125, size: 0x8, addend: 0x0, symName: __ZSt12__niter_baseIPKiSt6vectorIiSaIiEEET_N9__gnu_cxx17__normal_iteratorIS5_T0_EE, symObjAddr: 0x9398, symBinAddr: 0x100010950, symSize: 0x20 }
  - { offsetInCU: 0x1015F, offset: 0x1015F, size: 0x8, addend: 0x0, symName: __ZSt13__copy_move_aILb0EPKiPiET1_T0_S4_S3_, symObjAddr: 0x9338, symBinAddr: 0x1000108F0, symSize: 0x60 }
  - { offsetInCU: 0x101C3, offset: 0x101C3, size: 0x8, addend: 0x0, symName: __ZSt12__miter_baseIPKiET_S2_, symObjAddr: 0x9324, symBinAddr: 0x1000108DC, symSize: 0x14 }
  - { offsetInCU: 0x101F4, offset: 0x101F4, size: 0x8, addend: 0x0, symName: __ZSt10_ConstructI18ReservationStationJRKS0_EEvPT_DpOT0_, symObjAddr: 0x92C4, symBinAddr: 0x10001087C, symSize: 0x60 }
  - { offsetInCU: 0x1023D, offset: 0x1023D, size: 0x8, addend: 0x0, symName: __ZSt11__addressofI18ReservationStationEPT_RS1_, symObjAddr: 0x92B0, symBinAddr: 0x100010868, symSize: 0x14 }
  - { offsetInCU: 0x1026D, offset: 0x1026D, size: 0x8, addend: 0x0, symName: __ZSt19__relocate_object_aI11InstructionS0_SaIS0_EEvPT_PT0_RT1_, symObjAddr: 0x91D4, symBinAddr: 0x10001078C, symSize: 0xDC }
  - { offsetInCU: 0x10420, offset: 0x10420, size: 0x8, addend: 0x0, symName: __ZNSt20__copy_move_backwardILb1ELb1ESt26random_access_iterator_tagE13__copy_move_bI11InstructionS3_EEPT0_PT_S7_S5_, symObjAddr: 0x90F0, symBinAddr: 0x1000106A8, symSize: 0xE4 }
  - { offsetInCU: 0x1048A, offset: 0x1048A, size: 0x8, addend: 0x0, symName: __ZSt16__do_uninit_copyISt13move_iteratorIP11InstructionES2_ET0_T_S5_S4_, symObjAddr: 0x9048, symBinAddr: 0x100010600, symSize: 0xA8 }
  - { offsetInCU: 0x104F0, offset: 0x104F0, size: 0x8, addend: 0x0, symName: __ZNSt11__copy_moveILb1ELb1ESt26random_access_iterator_tagE8__copy_mI11InstructionS3_EEPT0_PT_S7_S5_, symObjAddr: 0x8F88, symBinAddr: 0x100010540, symSize: 0xC0 }
  - { offsetInCU: 0x1055A, offset: 0x1055A, size: 0x8, addend: 0x0, symName: __ZSt10_ConstructI11InstructionJRS0_EEvPT_DpOT0_, symObjAddr: 0x8F28, symBinAddr: 0x1000104E0, symSize: 0x60 }
  - { offsetInCU: 0x105A3, offset: 0x105A3, size: 0x8, addend: 0x0, symName: __ZSt10_ConstructI11InstructionJRKS0_EEvPT_DpOT0_, symObjAddr: 0x8EC8, symBinAddr: 0x100010480, symSize: 0x60 }
  - { offsetInCU: 0x105F0, offset: 0x105F0, size: 0x8, addend: 0x0, symName: __ZNK9__gnu_cxx17__normal_iteratorIPK11InstructionSt6vectorIS1_SaIS1_EEEdeEv, symObjAddr: 0x8EB0, symBinAddr: 0x100010468, symSize: 0x18 }
  - { offsetInCU: 0x10618, offset: 0x10618, size: 0x8, addend: 0x0, symName: __ZN9__gnu_cxx17__normal_iteratorIPK11InstructionSt6vectorIS1_SaIS1_EEEppEv, symObjAddr: 0x8E88, symBinAddr: 0x100010440, symSize: 0x28 }
  - { offsetInCU: 0x10642, offset: 0x10642, size: 0x8, addend: 0x0, symName: __ZN9__gnu_cxxneIPK11InstructionSt6vectorIS1_SaIS1_EEEEbRKNS_17__normal_iteratorIT_T0_EESC_, symObjAddr: 0x8E44, symBinAddr: 0x1000103FC, symSize: 0x44 }
  - { offsetInCU: 0x1068C, offset: 0x1068C, size: 0x8, addend: 0x0, symName: __ZSt10_ConstructI14RegisterStatusJRKS0_EEvPT_DpOT0_, symObjAddr: 0x8DFC, symBinAddr: 0x1000103B4, symSize: 0x48 }
  - { offsetInCU: 0x106D9, offset: 0x106D9, size: 0x8, addend: 0x0, symName: __ZNK9__gnu_cxx17__normal_iteratorIPK14RegisterStatusSt6vectorIS1_SaIS1_EEEdeEv, symObjAddr: 0x8DE4, symBinAddr: 0x10001039C, symSize: 0x18 }
  - { offsetInCU: 0x106FD, offset: 0x106FD, size: 0x8, addend: 0x0, symName: __ZSt11__addressofI14RegisterStatusEPT_RS1_, symObjAddr: 0x8DD0, symBinAddr: 0x100010388, symSize: 0x14 }
  - { offsetInCU: 0x10731, offset: 0x10731, size: 0x8, addend: 0x0, symName: __ZN9__gnu_cxx17__normal_iteratorIPK14RegisterStatusSt6vectorIS1_SaIS1_EEEppEv, symObjAddr: 0x8DA8, symBinAddr: 0x100010360, symSize: 0x28 }
  - { offsetInCU: 0x1075B, offset: 0x1075B, size: 0x8, addend: 0x0, symName: __ZN9__gnu_cxxneIPK14RegisterStatusSt6vectorIS1_SaIS1_EEEEbRKNS_17__normal_iteratorIT_T0_EESC_, symObjAddr: 0x8D64, symBinAddr: 0x10001031C, symSize: 0x44 }
  - { offsetInCU: 0x107A5, offset: 0x107A5, size: 0x8, addend: 0x0, symName: __ZSt13__copy_move_aILb0EN9__gnu_cxx17__normal_iteratorIPKiSt6vectorIiSaIiEEEEPiET1_T0_SA_S9_, symObjAddr: 0x8D04, symBinAddr: 0x1000102BC, symSize: 0x60 }
  - { offsetInCU: 0x10809, offset: 0x10809, size: 0x8, addend: 0x0, symName: __ZSt12__miter_baseIN9__gnu_cxx17__normal_iteratorIPKiSt6vectorIiSaIiEEEEET_S8_, symObjAddr: 0x8CF0, symBinAddr: 0x1000102A8, symSize: 0x14 }
  - { offsetInCU: 0x1083A, offset: 0x1083A, size: 0x8, addend: 0x0, symName: __ZSt4copyIPKiPiET0_T_S4_S3_, symObjAddr: 0x8CA8, symBinAddr: 0x100010260, symSize: 0x48 }
  - { offsetInCU: 0x108A8, offset: 0x108A8, size: 0x8, addend: 0x0, symName: __ZSt16__do_uninit_copyIPK14RegisterStatusPS0_ET0_T_S5_S4_, symObjAddr: 0x8C44, symBinAddr: 0x1000101FC, symSize: 0x64 }
  - { offsetInCU: 0x10922, offset: 0x10922, size: 0x8, addend: 0x0, symName: __ZSt16__do_uninit_copyIPK18ReservationStationPS0_ET0_T_S5_S4_, symObjAddr: 0x8BE0, symBinAddr: 0x100010198, symSize: 0x64 }
  - { offsetInCU: 0x1099C, offset: 0x1099C, size: 0x8, addend: 0x0, symName: __ZSt14__relocate_a_1IP11InstructionS1_SaIS0_EET0_T_S4_S3_RT1_, symObjAddr: 0x8B5C, symBinAddr: 0x100010114, symSize: 0x84 }
  - { offsetInCU: 0x10A1F, offset: 0x10A1F, size: 0x8, addend: 0x0, symName: __ZSt19__relocate_object_aINSt7__cxx1112basic_stringIcSt11char_traitsIcESaIcEEES5_SaIS5_EEvPT_PT0_RT1_, symObjAddr: 0x8A8C, symBinAddr: 0x100010044, symSize: 0xD0 }
  - { offsetInCU: 0x10B63, offset: 0x10B63, size: 0x8, addend: 0x0, symName: __ZNSt11__copy_moveILb0ELb0ESt26random_access_iterator_tagE12__assign_oneI11InstructionS3_EEvPT_PT0_, symObjAddr: 0x8A54, symBinAddr: 0x10001000C, symSize: 0x38 }
  - { offsetInCU: 0x10BAD, offset: 0x10BAD, size: 0x8, addend: 0x0, symName: __ZSt18__do_uninit_fill_nIP11InstructionmS0_ET_S2_T0_RKT1_, symObjAddr: 0x89F4, symBinAddr: 0x10000FFAC, symSize: 0x60 }
  - { offsetInCU: 0x10C20, offset: 0x10C20, size: 0x8, addend: 0x0, symName: __ZSt23__copy_move_backward_a2ILb1EP11InstructionS1_ET1_T0_S3_S2_, symObjAddr: 0x89C8, symBinAddr: 0x10000FF80, symSize: 0x2C }
  - { offsetInCU: 0x10C84, offset: 0x10C84, size: 0x8, addend: 0x0, symName: __ZNSt20__uninitialized_copyILb0EE13__uninit_copyISt13move_iteratorIP11InstructionES4_EET0_T_S7_S6_, symObjAddr: 0x899C, symBinAddr: 0x10000FF54, symSize: 0x2C }
  - { offsetInCU: 0x10CDB, offset: 0x10CDB, size: 0x8, addend: 0x0, symName: __ZSt14__copy_move_a2ILb1EP11InstructionS1_ET1_T0_S3_S2_, symObjAddr: 0x8970, symBinAddr: 0x10000FF28, symSize: 0x2C }
  - { offsetInCU: 0x10D3F, offset: 0x10D3F, size: 0x8, addend: 0x0, symName: __ZSt16__do_uninit_copyIN9__gnu_cxx17__normal_iteratorIP11InstructionSt6vectorIS2_SaIS2_EEEES3_ET0_T_S9_S8_, symObjAddr: 0x88F0, symBinAddr: 0x10000FEA8, symSize: 0x80 }
  - { offsetInCU: 0x10DB9, offset: 0x10DB9, size: 0x8, addend: 0x0, symName: __ZSt16__do_uninit_copyIN9__gnu_cxx17__normal_iteratorIPK11InstructionSt6vectorIS2_SaIS2_EEEEPS2_ET0_T_SB_SA_, symObjAddr: 0x8870, symBinAddr: 0x10000FE28, symSize: 0x80 }
  - { offsetInCU: 0x10E1F, offset: 0x10E1F, size: 0x8, addend: 0x0, symName: __ZSt16__do_uninit_copyIN9__gnu_cxx17__normal_iteratorIPK14RegisterStatusSt6vectorIS2_SaIS2_EEEEPS2_ET0_T_SB_SA_, symObjAddr: 0x87F0, symBinAddr: 0x10000FDA8, symSize: 0x80 }
  - { offsetInCU: 0x10E85, offset: 0x10E85, size: 0x8, addend: 0x0, symName: __ZSt4copyIN9__gnu_cxx17__normal_iteratorIPKiSt6vectorIiSaIiEEEEPiET0_T_SA_S9_, symObjAddr: 0x87A8, symBinAddr: 0x10000FD60, symSize: 0x48 }
  - { offsetInCU: 0x10EDF, offset: 0x10EDF, size: 0x8, addend: 0x0, symName: __ZNSt20__uninitialized_copyILb1EE13__uninit_copyIPKiPiEET0_T_S6_S5_, symObjAddr: 0x877C, symBinAddr: 0x10000FD34, symSize: 0x2C }
  - { offsetInCU: 0x10F3A, offset: 0x10F3A, size: 0x8, addend: 0x0, symName: __ZNSt15__new_allocatorIiE8allocateEmPKv, symObjAddr: 0x8700, symBinAddr: 0x10000FCB8, symSize: 0x7C }
  - { offsetInCU: 0x10FD7, offset: 0x10FD7, size: 0x8, addend: 0x0, symName: __ZNSt15__new_allocatorIiE10deallocateEPim, symObjAddr: 0x86D0, symBinAddr: 0x10000FC88, symSize: 0x30 }
  - { offsetInCU: 0x11032, offset: 0x11032, size: 0x8, addend: 0x0, symName: __ZNSt20__uninitialized_copyILb0EE13__uninit_copyIPK14RegisterStatusPS2_EET0_T_S7_S6_, symObjAddr: 0x86A4, symBinAddr: 0x10000FC5C, symSize: 0x2C }
  - { offsetInCU: 0x1108D, offset: 0x1108D, size: 0x8, addend: 0x0, symName: __ZNSt15__new_allocatorI14RegisterStatusE8allocateEmPKv, symObjAddr: 0x8628, symBinAddr: 0x10000FBE0, symSize: 0x7C }
  - { offsetInCU: 0x1112A, offset: 0x1112A, size: 0x8, addend: 0x0, symName: __ZNSt15__new_allocatorI14RegisterStatusE10deallocateEPS0_m, symObjAddr: 0x85F8, symBinAddr: 0x10000FBB0, symSize: 0x30 }
  - { offsetInCU: 0x11185, offset: 0x11185, size: 0x8, addend: 0x0, symName: __ZNSt20__uninitialized_copyILb0EE13__uninit_copyIPK18ReservationStationPS2_EET0_T_S7_S6_, symObjAddr: 0x85CC, symBinAddr: 0x10000FB84, symSize: 0x2C }
  - { offsetInCU: 0x111E0, offset: 0x111E0, size: 0x8, addend: 0x0, symName: __ZNSt15__new_allocatorI18ReservationStationE8allocateEmPKv, symObjAddr: 0x853C, symBinAddr: 0x10000FAF4, symSize: 0x90 }
  - { offsetInCU: 0x1127D, offset: 0x1127D, size: 0x8, addend: 0x0, symName: __ZNSt15__new_allocatorI18ReservationStationE10deallocateEPS0_m, symObjAddr: 0x8500, symBinAddr: 0x10000FAB8, symSize: 0x3C }
  - { offsetInCU: 0x112D8, offset: 0x112D8, size: 0x8, addend: 0x0, symName: __ZSt12__relocate_aIP11InstructionS1_SaIS0_EET0_T_S4_S3_RT1_, symObjAddr: 0x84A4, symBinAddr: 0x10000FA5C, symSize: 0x5C }
  - { offsetInCU: 0x1134B, offset: 0x1134B, size: 0x8, addend: 0x0, symName: __ZSt14__relocate_a_1IPNSt7__cxx1112basic_stringIcSt11char_traitsIcESaIcEEES6_SaIS5_EET0_T_S9_S8_RT1_, symObjAddr: 0x8420, symBinAddr: 0x10000F9D8, symSize: 0x84 }
  - { offsetInCU: 0x113CE, offset: 0x113CE, size: 0x8, addend: 0x0, symName: __ZSt12__niter_baseIPNSt7__cxx1112basic_stringIcSt11char_traitsIcESaIcEEEET_S7_, symObjAddr: 0x840C, symBinAddr: 0x10000F9C4, symSize: 0x14 }
  - { offsetInCU: 0x11403, offset: 0x11403, size: 0x8, addend: 0x0, symName: __ZNSt15__new_allocatorINSt7__cxx1112basic_stringIcSt11char_traitsIcESaIcEEEE8allocateEmPKv, symObjAddr: 0x8390, symBinAddr: 0x10000F948, symSize: 0x7C }
  - { offsetInCU: 0x1148A, offset: 0x1148A, size: 0x8, addend: 0x0, symName: __ZNKSt12_Vector_baseINSt7__cxx1112basic_stringIcSt11char_traitsIcESaIcEEESaIS5_EE19_M_get_Tp_allocatorEv, symObjAddr: 0x837C, symBinAddr: 0x10000F934, symSize: 0x14 }
  - { offsetInCU: 0x114AE, offset: 0x114AE, size: 0x8, addend: 0x0, symName: __ZNSt6vectorINSt7__cxx1112basic_stringIcSt11char_traitsIcESaIcEEESaIS5_EE11_S_max_sizeERKS6_, symObjAddr: 0x8328, symBinAddr: 0x10000F8E0, symSize: 0x54 }
  - { offsetInCU: 0x11561, offset: 0x11561, size: 0x8, addend: 0x0, symName: __ZSt8_DestroyINSt7__cxx1112basic_stringIcSt11char_traitsIcESaIcEEEEvPT_, symObjAddr: 0x8308, symBinAddr: 0x10000F8C0, symSize: 0x20 }
  - { offsetInCU: 0x11591, offset: 0x11591, size: 0x8, addend: 0x0, symName: __ZSt11__addressofINSt7__cxx1112basic_stringIcSt11char_traitsIcESaIcEEEEPT_RS6_, symObjAddr: 0x82F4, symBinAddr: 0x10000F8AC, symSize: 0x14 }
  - { offsetInCU: 0x115C1, offset: 0x115C1, size: 0x8, addend: 0x0, symName: __ZNSt11__copy_moveILb0ELb1ESt26random_access_iterator_tagE8__copy_mI11InstructionS3_EEPT0_PT_S7_S5_, symObjAddr: 0x8234, symBinAddr: 0x10000F7EC, symSize: 0xC0 }
  - { offsetInCU: 0x1162B, offset: 0x1162B, size: 0x8, addend: 0x0, symName: __ZNSt22__uninitialized_fill_nILb0EE15__uninit_fill_nIP11InstructionmS2_EET_S4_T0_RKT1_, symObjAddr: 0x8208, symBinAddr: 0x10000F7C0, symSize: 0x2C }
  - { offsetInCU: 0x1168E, offset: 0x1168E, size: 0x8, addend: 0x0, symName: __ZSt9__fill_a1IP11InstructionS0_EN9__gnu_cxx11__enable_ifIXntsrSt11__is_scalarIT0_E7__valueEvE6__typeET_S9_RKS5_, symObjAddr: 0x81A8, symBinAddr: 0x10000F760, symSize: 0x60 }
  - { offsetInCU: 0x116E8, offset: 0x116E8, size: 0x8, addend: 0x0, symName: __ZSt12__niter_wrapIP11InstructionET_RKS2_S2_, symObjAddr: 0x8190, symBinAddr: 0x10000F748, symSize: 0x18 }
  - { offsetInCU: 0x11722, offset: 0x11722, size: 0x8, addend: 0x0, symName: __ZSt23__copy_move_backward_a1ILb1EP11InstructionS1_ET1_T0_S3_S2_, symObjAddr: 0x8164, symBinAddr: 0x10000F71C, symSize: 0x2C }
  - { offsetInCU: 0x11786, offset: 0x11786, size: 0x8, addend: 0x0, symName: __ZSt18uninitialized_copyISt13move_iteratorIP11InstructionES2_ET0_T_S5_S4_, symObjAddr: 0x8130, symBinAddr: 0x10000F6E8, symSize: 0x34 }
  - { offsetInCU: 0x1184C, offset: 0x1184C, size: 0x8, addend: 0x0, symName: __ZNSt13move_iteratorIP11InstructionEC1ES1_, symObjAddr: 0x8100, symBinAddr: 0x10000F6B8, symSize: 0x30 }
  - { offsetInCU: 0x1185C, offset: 0x1185C, size: 0x8, addend: 0x0, symName: __ZSt4moveIRP11InstructionEONSt16remove_referenceIT_E4typeEOS4_, symObjAddr: 0x80EC, symBinAddr: 0x10000F6A4, symSize: 0x14 }
  - { offsetInCU: 0x118CA, offset: 0x118CA, size: 0x8, addend: 0x0, symName: __ZSt11__addressofI11InstructionEPT_RS1_, symObjAddr: 0x80D8, symBinAddr: 0x10000F690, symSize: 0x14 }
  - { offsetInCU: 0x118FA, offset: 0x118FA, size: 0x8, addend: 0x0, symName: __ZSt14__copy_move_a1ILb1EP11InstructionS1_ET1_T0_S3_S2_, symObjAddr: 0x80AC, symBinAddr: 0x10000F664, symSize: 0x2C }
  - { offsetInCU: 0x1195E, offset: 0x1195E, size: 0x8, addend: 0x0, symName: __ZNSt20__uninitialized_copyILb0EE13__uninit_copyIN9__gnu_cxx17__normal_iteratorIP11InstructionSt6vectorIS4_SaIS4_EEEES5_EET0_T_SB_SA_, symObjAddr: 0x8080, symBinAddr: 0x10000F638, symSize: 0x2C }
  - { offsetInCU: 0x119B9, offset: 0x119B9, size: 0x8, addend: 0x0, symName: __ZNSt15__new_allocatorI11InstructionE8allocateEmPKv, symObjAddr: 0x7FE8, symBinAddr: 0x10000F5A0, symSize: 0x98 }
  - { offsetInCU: 0x11A42, offset: 0x11A42, size: 0x8, addend: 0x0, symName: __ZSt3minImERKT_S2_S2_, symObjAddr: 0x7FB0, symBinAddr: 0x10000F568, symSize: 0x38 }
  - { offsetInCU: 0x11AB0, offset: 0x11AB0, size: 0x8, addend: 0x0, symName: __ZNSt20__uninitialized_copyILb0EE13__uninit_copyIN9__gnu_cxx17__normal_iteratorIPK11InstructionSt6vectorIS4_SaIS4_EEEEPS4_EET0_T_SD_SC_, symObjAddr: 0x7F84, symBinAddr: 0x10000F53C, symSize: 0x2C }
  - { offsetInCU: 0x11B07, offset: 0x11B07, size: 0x8, addend: 0x0, symName: __ZNSt20__uninitialized_copyILb0EE13__uninit_copyIN9__gnu_cxx17__normal_iteratorIPK14RegisterStatusSt6vectorIS4_SaIS4_EEEEPS4_EET0_T_SD_SC_, symObjAddr: 0x7F58, symBinAddr: 0x10000F510, symSize: 0x2C }
  - { offsetInCU: 0x11B5E, offset: 0x11B5E, size: 0x8, addend: 0x0, symName: __ZNSt20__uninitialized_copyILb1EE13__uninit_copyIN9__gnu_cxx17__normal_iteratorIPKiSt6vectorIiSaIiEEEEPiEET0_T_SC_SB_, symObjAddr: 0x7F2C, symBinAddr: 0x10000F4E4, symSize: 0x2C }
  - { offsetInCU: 0x11BB5, offset: 0x11BB5, size: 0x8, addend: 0x0, symName: __ZNSt12_Destroy_auxILb1EE9__destroyIPiEEvT_S3_, symObjAddr: 0x7F14, symBinAddr: 0x10000F4CC, symSize: 0x18 }
  - { offsetInCU: 0x11BE8, offset: 0x11BE8, size: 0x8, addend: 0x0, symName: __ZSt18uninitialized_copyIPKiPiET0_T_S4_S3_, symObjAddr: 0x7ED8, symBinAddr: 0x10000F490, symSize: 0x3C }
  - { offsetInCU: 0x11C81, offset: 0x11C81, size: 0x8, addend: 0x0, symName: __ZNSt6vectorIiSaIiEE11_S_max_sizeERKS0_, symObjAddr: 0x7E84, symBinAddr: 0x10000F43C, symSize: 0x54 }
  - { offsetInCU: 0x11DB1, offset: 0x11DB1, size: 0x8, addend: 0x0, symName: __ZNSt12_Vector_baseIiSaIiEE17_Vector_impl_dataC2Ev, symObjAddr: 0x7E58, symBinAddr: 0x10000F410, symSize: 0x2C }
  - { offsetInCU: 0x11DC4, offset: 0x11DC4, size: 0x8, addend: 0x0, symName: __ZNSt12_Destroy_auxILb1EE9__destroyIP14RegisterStatusEEvT_S4_, symObjAddr: 0x7E40, symBinAddr: 0x10000F3F8, symSize: 0x18 }
  - { offsetInCU: 0x11DF7, offset: 0x11DF7, size: 0x8, addend: 0x0, symName: __ZSt18uninitialized_copyIPK14RegisterStatusPS0_ET0_T_S5_S4_, symObjAddr: 0x7E0C, symBinAddr: 0x10000F3C4, symSize: 0x34 }
  - { offsetInCU: 0x11E90, offset: 0x11E90, size: 0x8, addend: 0x0, symName: __ZNSt6vectorI14RegisterStatusSaIS0_EE11_S_max_sizeERKS1_, symObjAddr: 0x7DB8, symBinAddr: 0x10000F370, symSize: 0x54 }
  - { offsetInCU: 0x11FD1, offset: 0x11FD1, size: 0x8, addend: 0x0, symName: __ZNSt12_Vector_baseI14RegisterStatusSaIS0_EE17_Vector_impl_dataC2Ev, symObjAddr: 0x7D8C, symBinAddr: 0x10000F344, symSize: 0x2C }
  - { offsetInCU: 0x11FD3, offset: 0x11FD3, size: 0x8, addend: 0x0, symName: __ZNSt12_Destroy_auxILb1EE9__destroyIP18ReservationStationEEvT_S4_, symObjAddr: 0x7D74, symBinAddr: 0x10000F32C, symSize: 0x18 }
  - { offsetInCU: 0x12006, offset: 0x12006, size: 0x8, addend: 0x0, symName: __ZSt18uninitialized_copyIPK18ReservationStationPS0_ET0_T_S5_S4_, symObjAddr: 0x7D40, symBinAddr: 0x10000F2F8, symSize: 0x34 }
  - { offsetInCU: 0x1209F, offset: 0x1209F, size: 0x8, addend: 0x0, symName: __ZNSt6vectorI18ReservationStationSaIS0_EE11_S_max_sizeERKS1_, symObjAddr: 0x7CE4, symBinAddr: 0x10000F29C, symSize: 0x5C }
  - { offsetInCU: 0x121E4, offset: 0x121E4, size: 0x8, addend: 0x0, symName: __ZNSt12_Vector_baseI18ReservationStationSaIS0_EE17_Vector_impl_dataC2Ev, symObjAddr: 0x7CB8, symBinAddr: 0x10000F270, symSize: 0x2C }
  - { offsetInCU: 0x121E6, offset: 0x121E6, size: 0x8, addend: 0x0, symName: __ZNSt15__new_allocatorI11InstructionE10deallocateEPS0_m, symObjAddr: 0x7C7C, symBinAddr: 0x10000F234, symSize: 0x3C }
  - { offsetInCU: 0x1222C, offset: 0x1222C, size: 0x8, addend: 0x0, symName: __ZNK9__gnu_cxx17__normal_iteratorIP11InstructionSt6vectorIS1_SaIS1_EEEmiEl, symObjAddr: 0x7C2C, symBinAddr: 0x10000F1E4, symSize: 0x50 }
  - { offsetInCU: 0x12260, offset: 0x12260, size: 0x8, addend: 0x0, symName: __ZNSt6vectorI11InstructionSaIS0_EE11_S_relocateEPS0_S3_S3_RS1_, symObjAddr: 0x7BF8, symBinAddr: 0x10000F1B0, symSize: 0x34 }
  - { offsetInCU: 0x122B8, offset: 0x122B8, size: 0x8, addend: 0x0, symName: __ZSt12__to_addressI11InstructionEPT_S2_, symObjAddr: 0x7BE4, symBinAddr: 0x10000F19C, symSize: 0x14 }
  - { offsetInCU: 0x12326, offset: 0x12326, size: 0x8, addend: 0x0, symName: __ZSt12__relocate_aIPNSt7__cxx1112basic_stringIcSt11char_traitsIcESaIcEEES6_SaIS5_EET0_T_S9_S8_RT1_, symObjAddr: 0x7B88, symBinAddr: 0x10000F140, symSize: 0x5C }
  - { offsetInCU: 0x123C1, offset: 0x123C1, size: 0x8, addend: 0x0, symName: __ZNKSt6vectorINSt7__cxx1112basic_stringIcSt11char_traitsIcESaIcEEESaIS5_EE4sizeEv, symObjAddr: 0x7B60, symBinAddr: 0x10000F118, symSize: 0x28 }
  - { offsetInCU: 0x123E9, offset: 0x123E9, size: 0x8, addend: 0x0, symName: __ZNKSt6vectorINSt7__cxx1112basic_stringIcSt11char_traitsIcESaIcEEESaIS5_EE8max_sizeEv, symObjAddr: 0x7B40, symBinAddr: 0x10000F0F8, symSize: 0x20 }
  - { offsetInCU: 0x1240D, offset: 0x1240D, size: 0x8, addend: 0x0, symName: __ZNSt12_Destroy_auxILb0EE9__destroyIPNSt7__cxx1112basic_stringIcSt11char_traitsIcESaIcEEEEEvT_S9_, symObjAddr: 0x7AF4, symBinAddr: 0x10000F0AC, symSize: 0x4C }
  - { offsetInCU: 0x12450, offset: 0x12450, size: 0x8, addend: 0x0, symName: __ZNSt15__new_allocatorINSt7__cxx1112basic_stringIcSt11char_traitsIcESaIcEEEE10deallocateEPS5_m, symObjAddr: 0x7AC4, symBinAddr: 0x10000F07C, symSize: 0x30 }
  - { offsetInCU: 0x12492, offset: 0x12492, size: 0x8, addend: 0x0, symName: __ZSt12__niter_baseIP11InstructionET_S2_, symObjAddr: 0x7AB0, symBinAddr: 0x10000F068, symSize: 0x14 }
  - { offsetInCU: 0x124C3, offset: 0x124C3, size: 0x8, addend: 0x0, symName: __ZSt14__copy_move_a2ILb0EP11InstructionS1_ET1_T0_S3_S2_, symObjAddr: 0x7A84, symBinAddr: 0x10000F03C, symSize: 0x2C }
  - { offsetInCU: 0x12527, offset: 0x12527, size: 0x8, addend: 0x0, symName: __ZSt32__make_move_if_noexcept_iteratorI11InstructionSt13move_iteratorIPS0_EET0_PT_, symObjAddr: 0x7A60, symBinAddr: 0x10000F018, symSize: 0x24 }
  - { offsetInCU: 0x12561, offset: 0x12561, size: 0x8, addend: 0x0, symName: __ZSt3maxImERKT_S2_S2_, symObjAddr: 0x7A28, symBinAddr: 0x10000EFE0, symSize: 0x38 }
  - { offsetInCU: 0x125A6, offset: 0x125A6, size: 0x8, addend: 0x0, symName: __ZNKSt6vectorI11InstructionSaIS0_EE8max_sizeEv, symObjAddr: 0x7A08, symBinAddr: 0x10000EFC0, symSize: 0x20 }
  - { offsetInCU: 0x125CA, offset: 0x125CA, size: 0x8, addend: 0x0, symName: __ZSt20uninitialized_fill_nIP11InstructionmS0_ET_S2_T0_RKT1_, symObjAddr: 0x79D8, symBinAddr: 0x10000EF90, symSize: 0x30 }
  - { offsetInCU: 0x1263D, offset: 0x1263D, size: 0x8, addend: 0x0, symName: __ZSt8__fill_aIP11InstructionS0_EvT_S2_RKT0_, symObjAddr: 0x79A8, symBinAddr: 0x10000EF60, symSize: 0x30 }
  - { offsetInCU: 0x12697, offset: 0x12697, size: 0x8, addend: 0x0, symName: __ZSt22__copy_move_backward_aILb1EP11InstructionS1_ET1_T0_S3_S2_, symObjAddr: 0x7948, symBinAddr: 0x10000EF00, symSize: 0x60 }
  - { offsetInCU: 0x126FB, offset: 0x126FB, size: 0x8, addend: 0x0, symName: __ZSt12__miter_baseIP11InstructionET_S2_, symObjAddr: 0x7934, symBinAddr: 0x10000EEEC, symSize: 0x14 }
  - { offsetInCU: 0x1272C, offset: 0x1272C, size: 0x8, addend: 0x0, symName: __ZSt22__uninitialized_copy_aISt13move_iteratorIP11InstructionES2_S1_ET0_T_S5_S4_RSaIT1_E, symObjAddr: 0x7904, symBinAddr: 0x10000EEBC, symSize: 0x30 }
  - { offsetInCU: 0x12798, offset: 0x12798, size: 0x8, addend: 0x0, symName: __ZSt18make_move_iteratorIP11InstructionESt13move_iteratorIT_ES3_, symObjAddr: 0x78D8, symBinAddr: 0x10000EE90, symSize: 0x2C }
  - { offsetInCU: 0x12813, offset: 0x12813, size: 0x8, addend: 0x0, symName: __ZSt7forwardIRK11InstructionEOT_RNSt16remove_referenceIS3_E4typeE, symObjAddr: 0x78C4, symBinAddr: 0x10000EE7C, symSize: 0x14 }
  - { offsetInCU: 0x12847, offset: 0x12847, size: 0x8, addend: 0x0, symName: __ZNSt6vectorI11InstructionSaIS0_EE16_Temporary_value6_M_ptrEv, symObjAddr: 0x78A4, symBinAddr: 0x10000EE5C, symSize: 0x20 }
  - { offsetInCU: 0x128CE, offset: 0x128CE, size: 0x8, addend: 0x0, symName: __ZNSt6vectorI11InstructionSaIS0_EE16_Temporary_value8_StorageD1Ev, symObjAddr: 0x7890, symBinAddr: 0x10000EE48, symSize: 0x14 }
  - { offsetInCU: 0x1290C, offset: 0x1290C, size: 0x8, addend: 0x0, symName: __ZNSt6vectorI11InstructionSaIS0_EE16_Temporary_value8_StorageC1Ev, symObjAddr: 0x7874, symBinAddr: 0x10000EE2C, symSize: 0x1C }
  - { offsetInCU: 0x12919, offset: 0x12919, size: 0x8, addend: 0x0, symName: __ZSt13__copy_move_aILb1EN9__gnu_cxx17__normal_iteratorIP11InstructionSt6vectorIS2_SaIS2_EEEES7_ET1_T0_S9_S8_, symObjAddr: 0x7814, symBinAddr: 0x10000EDCC, symSize: 0x60 }
  - { offsetInCU: 0x1297D, offset: 0x1297D, size: 0x8, addend: 0x0, symName: __ZNSt12_Destroy_auxILb1EE9__destroyIP11InstructionEEvT_S4_, symObjAddr: 0x77FC, symBinAddr: 0x10000EDB4, symSize: 0x18 }
  - { offsetInCU: 0x129B0, offset: 0x129B0, size: 0x8, addend: 0x0, symName: __ZSt18uninitialized_copyIN9__gnu_cxx17__normal_iteratorIP11InstructionSt6vectorIS2_SaIS2_EEEES3_ET0_T_S9_S8_, symObjAddr: 0x77C8, symBinAddr: 0x10000ED80, symSize: 0x34 }
  - { offsetInCU: 0x12A49, offset: 0x12A49, size: 0x8, addend: 0x0, symName: __ZNSt6vectorI11InstructionSaIS0_EE11_S_max_sizeERKS1_, symObjAddr: 0x7764, symBinAddr: 0x10000ED1C, symSize: 0x64 }
  - { offsetInCU: 0x12B20, offset: 0x12B20, size: 0x8, addend: 0x0, symName: __ZN9__gnu_cxx5__ops10_Iter_predIZN13decoder_class22repeatLoopInstructionsERSt6vectorI11InstructionSaIS4_EEEUlRKS4_E0_EclINS_17__normal_iteratorIPS4_S6_EEEEbT_, symObjAddr: 0x772C, symBinAddr: 0x10000ECE4, symSize: 0x38 }
  - { offsetInCU: 0x12B61, offset: 0x12B61, size: 0x8, addend: 0x0, symName: __ZN9__gnu_cxx5__ops10_Iter_predIZN13decoder_class22repeatLoopInstructionsERSt6vectorI11InstructionSaIS4_EEEUlRKS4_E_EclINS_17__normal_iteratorIPS4_S6_EEEEbT_, symObjAddr: 0x76F4, symBinAddr: 0x10000ECAC, symSize: 0x38 }
  - { offsetInCU: 0x12BCC, offset: 0x12BCC, size: 0x8, addend: 0x0, symName: __ZSt18uninitialized_copyIN9__gnu_cxx17__normal_iteratorIPK11InstructionSt6vectorIS2_SaIS2_EEEEPS2_ET0_T_SB_SA_, symObjAddr: 0x76C0, symBinAddr: 0x10000EC78, symSize: 0x34 }
  - { offsetInCU: 0x12C45, offset: 0x12C45, size: 0x8, addend: 0x0, symName: __ZNSt12_Vector_baseI11InstructionSaIS0_EE17_M_create_storageEm, symObjAddr: 0x7654, symBinAddr: 0x10000EC0C, symSize: 0x6C }
  - { offsetInCU: 0x12C8F, offset: 0x12C8F, size: 0x8, addend: 0x0, symName: __ZSt18uninitialized_copyIN9__gnu_cxx17__normal_iteratorIPK14RegisterStatusSt6vectorIS2_SaIS2_EEEEPS2_ET0_T_SB_SA_, symObjAddr: 0x7620, symBinAddr: 0x10000EBD8, symSize: 0x34 }
  - { offsetInCU: 0x12D7C, offset: 0x12D7C, size: 0x8, addend: 0x0, symName: __ZN9__gnu_cxx17__normal_iteratorIPK14RegisterStatusSt6vectorIS1_SaIS1_EEEC1ERKS3_, symObjAddr: 0x75F8, symBinAddr: 0x10000EBB0, symSize: 0x28 }
  - { offsetInCU: 0x12D5D, offset: 0x12D5D, size: 0x8, addend: 0x0, symName: __ZNSt12_Vector_baseI14RegisterStatusSaIS0_EE17_M_create_storageEm, symObjAddr: 0x7598, symBinAddr: 0x10000EB50, symSize: 0x60 }
  - { offsetInCU: 0x12DA7, offset: 0x12DA7, size: 0x8, addend: 0x0, symName: __ZSt18uninitialized_copyIN9__gnu_cxx17__normal_iteratorIPKiSt6vectorIiSaIiEEEEPiET0_T_SA_S9_, symObjAddr: 0x755C, symBinAddr: 0x10000EB14, symSize: 0x3C }
  - { offsetInCU: 0x12E81, offset: 0x12E81, size: 0x8, addend: 0x0, symName: __ZN9__gnu_cxx17__normal_iteratorIPKiSt6vectorIiSaIiEEEC1ERKS2_, symObjAddr: 0x7534, symBinAddr: 0x10000EAEC, symSize: 0x28 }
  - { offsetInCU: 0x12E75, offset: 0x12E75, size: 0x8, addend: 0x0, symName: __ZNSt12_Vector_baseIiSaIiEE17_M_create_storageEm, symObjAddr: 0x74D4, symBinAddr: 0x10000EA8C, symSize: 0x60 }
  - { offsetInCU: 0x12EBF, offset: 0x12EBF, size: 0x8, addend: 0x0, symName: __ZSt8_DestroyIPiEvT_S1_, symObjAddr: 0x74AC, symBinAddr: 0x10000EA64, symSize: 0x28 }
  - { offsetInCU: 0x12EFE, offset: 0x12EFE, size: 0x8, addend: 0x0, symName: __ZSt22__uninitialized_copy_aIPKiPiiET0_T_S4_S3_RSaIT1_E, symObjAddr: 0x747C, symBinAddr: 0x10000EA34, symSize: 0x30 }
  - { offsetInCU: 0x12F6E, offset: 0x12F6E, size: 0x8, addend: 0x0, symName: __ZNSt12_Vector_baseIiSaIiEE11_M_allocateEm, symObjAddr: 0x742C, symBinAddr: 0x10000E9E4, symSize: 0x50 }
  - { offsetInCU: 0x12FCF, offset: 0x12FCF, size: 0x8, addend: 0x0, symName: __ZNSt6vectorIiSaIiEE17_S_check_init_lenEmRKS0_, symObjAddr: 0x73A8, symBinAddr: 0x10000E960, symSize: 0x84 }
  - { offsetInCU: 0x130C6, offset: 0x130C6, size: 0x8, addend: 0x0, symName: __ZNKSt16initializer_listIiE4sizeEv, symObjAddr: 0x7390, symBinAddr: 0x10000E948, symSize: 0x18 }
  - { offsetInCU: 0x130EE, offset: 0x130EE, size: 0x8, addend: 0x0, symName: __ZNSt12_Vector_baseIiSaIiEE13_M_deallocateEPim, symObjAddr: 0x7338, symBinAddr: 0x10000E8F0, symSize: 0x58 }
  - { offsetInCU: 0x131BE, offset: 0x131BE, size: 0x8, addend: 0x0, symName: __ZNSt12_Vector_baseIiSaIiEE12_Vector_implC1ERKS0_, symObjAddr: 0x72EC, symBinAddr: 0x10000E8A4, symSize: 0x4C }
  - { offsetInCU: 0x13213, offset: 0x13213, size: 0x8, addend: 0x0, symName: __ZSt8_DestroyIP14RegisterStatusEvT_S2_, symObjAddr: 0x72C4, symBinAddr: 0x10000E87C, symSize: 0x28 }
  - { offsetInCU: 0x13252, offset: 0x13252, size: 0x8, addend: 0x0, symName: __ZSt22__uninitialized_copy_aIPK14RegisterStatusPS0_S0_ET0_T_S5_S4_RSaIT1_E, symObjAddr: 0x7294, symBinAddr: 0x10000E84C, symSize: 0x30 }
  - { offsetInCU: 0x132C2, offset: 0x132C2, size: 0x8, addend: 0x0, symName: __ZNSt12_Vector_baseI14RegisterStatusSaIS0_EE11_M_allocateEm, symObjAddr: 0x7244, symBinAddr: 0x10000E7FC, symSize: 0x50 }
  - { offsetInCU: 0x13323, offset: 0x13323, size: 0x8, addend: 0x0, symName: __ZNSt6vectorI14RegisterStatusSaIS0_EE17_S_check_init_lenEmRKS1_, symObjAddr: 0x71C0, symBinAddr: 0x10000E778, symSize: 0x84 }
  - { offsetInCU: 0x1341A, offset: 0x1341A, size: 0x8, addend: 0x0, symName: __ZNKSt16initializer_listI14RegisterStatusE4sizeEv, symObjAddr: 0x71A8, symBinAddr: 0x10000E760, symSize: 0x18 }
  - { offsetInCU: 0x13442, offset: 0x13442, size: 0x8, addend: 0x0, symName: __ZNSt12_Vector_baseI14RegisterStatusSaIS0_EE13_M_deallocateEPS0_m, symObjAddr: 0x7150, symBinAddr: 0x10000E708, symSize: 0x58 }
  - { offsetInCU: 0x13523, offset: 0x13523, size: 0x8, addend: 0x0, symName: __ZNSt12_Vector_baseI14RegisterStatusSaIS0_EE12_Vector_implC1ERKS1_, symObjAddr: 0x7104, symBinAddr: 0x10000E6BC, symSize: 0x4C }
  - { offsetInCU: 0x13567, offset: 0x13567, size: 0x8, addend: 0x0, symName: __ZSt8_DestroyIP18ReservationStationEvT_S2_, symObjAddr: 0x70DC, symBinAddr: 0x10000E694, symSize: 0x28 }
  - { offsetInCU: 0x135A6, offset: 0x135A6, size: 0x8, addend: 0x0, symName: __ZSt22__uninitialized_copy_aIPK18ReservationStationPS0_S0_ET0_T_S5_S4_RSaIT1_E, symObjAddr: 0x70AC, symBinAddr: 0x10000E664, symSize: 0x30 }
  - { offsetInCU: 0x13616, offset: 0x13616, size: 0x8, addend: 0x0, symName: __ZNSt12_Vector_baseI18ReservationStationSaIS0_EE11_M_allocateEm, symObjAddr: 0x705C, symBinAddr: 0x10000E614, symSize: 0x50 }
  - { offsetInCU: 0x13677, offset: 0x13677, size: 0x8, addend: 0x0, symName: __ZNSt6vectorI18ReservationStationSaIS0_EE17_S_check_init_lenEmRKS1_, symObjAddr: 0x6FD8, symBinAddr: 0x10000E590, symSize: 0x84 }
  - { offsetInCU: 0x13774, offset: 0x13774, size: 0x8, addend: 0x0, symName: __ZNKSt16initializer_listI18ReservationStationE4sizeEv, symObjAddr: 0x6FC0, symBinAddr: 0x10000E578, symSize: 0x18 }
  - { offsetInCU: 0x1379C, offset: 0x1379C, size: 0x8, addend: 0x0, symName: __ZNSt12_Vector_baseI18ReservationStationSaIS0_EE13_M_deallocateEPS0_m, symObjAddr: 0x6F68, symBinAddr: 0x10000E520, symSize: 0x58 }
  - { offsetInCU: 0x13881, offset: 0x13881, size: 0x8, addend: 0x0, symName: __ZNSt12_Vector_baseI18ReservationStationSaIS0_EE12_Vector_implC1ERKS1_, symObjAddr: 0x6F1C, symBinAddr: 0x10000E4D4, symSize: 0x4C }
  - { offsetInCU: 0x138F7, offset: 0x138F7, size: 0x8, addend: 0x0, symName: __ZNSt6vectorI11InstructionSaIS0_EE4backEv, symObjAddr: 0x6EE4, symBinAddr: 0x10000E49C, symSize: 0x38 }
  - { offsetInCU: 0x1391F, offset: 0x1391F, size: 0x8, addend: 0x0, symName: __ZNSt6vectorI11InstructionSaIS0_EE17_M_realloc_appendIJS0_EEEvDpOT_, symObjAddr: 0x6CDC, symBinAddr: 0x10000E294, symSize: 0x208 }
  - { offsetInCU: 0x13AEE, offset: 0x13AEE, size: 0x8, addend: 0x0, symName: __ZZNSt6vectorI11InstructionSaIS0_EE17_M_realloc_appendIJS0_EEEvDpOT_EN6_GuardC1EPS0_mRS1_, symObjAddr: 0x6C38, symBinAddr: 0x10000E1F0, symSize: 0x44 }
  - { offsetInCU: 0x13B2C, offset: 0x13B2C, size: 0x8, addend: 0x0, symName: __ZZNSt6vectorI11InstructionSaIS0_EE17_M_realloc_appendIJS0_EEEvDpOT_EN6_GuardD1Ev, symObjAddr: 0x6C7C, symBinAddr: 0x10000E234, symSize: 0x60 }
  - { offsetInCU: 0x13C15, offset: 0x13C15, size: 0x8, addend: 0x0, symName: __ZSt7forwardI11InstructionEOT_RNSt16remove_referenceIS1_E4typeE, symObjAddr: 0x6C24, symBinAddr: 0x10000E1DC, symSize: 0x14 }
  - { offsetInCU: 0x13C45, offset: 0x13C45, size: 0x8, addend: 0x0, symName: __ZNSt6vectorINSt7__cxx1112basic_stringIcSt11char_traitsIcESaIcEEESaIS5_EE11_S_relocateEPS5_S8_S8_RS6_, symObjAddr: 0x6BF0, symBinAddr: 0x10000E1A8, symSize: 0x34 }
  - { offsetInCU: 0x13C9D, offset: 0x13C9D, size: 0x8, addend: 0x0, symName: __ZSt12__to_addressINSt7__cxx1112basic_stringIcSt11char_traitsIcESaIcEEEEPT_S7_, symObjAddr: 0x6BDC, symBinAddr: 0x10000E194, symSize: 0x14 }
  - { offsetInCU: 0x13CD1, offset: 0x13CD1, size: 0x8, addend: 0x0, symName: __ZNSt12_Vector_baseINSt7__cxx1112basic_stringIcSt11char_traitsIcESaIcEEESaIS5_EE11_M_allocateEm, symObjAddr: 0x6B8C, symBinAddr: 0x10000E144, symSize: 0x50 }
  - { offsetInCU: 0x13D38, offset: 0x13D38, size: 0x8, addend: 0x0, symName: __ZN9__gnu_cxxmiIPNSt7__cxx1112basic_stringIcSt11char_traitsIcESaIcEEESt6vectorIS6_SaIS6_EEEENS_17__normal_iteratorIT_T0_E15difference_typeERKSE_SH_, symObjAddr: 0x6B4C, symBinAddr: 0x10000E104, symSize: 0x40 }
  - { offsetInCU: 0x13D86, offset: 0x13D86, size: 0x8, addend: 0x0, symName: __ZNKSt6vectorINSt7__cxx1112basic_stringIcSt11char_traitsIcESaIcEEESaIS5_EE12_M_check_lenEmPKc, symObjAddr: 0x6A7C, symBinAddr: 0x10000E034, symSize: 0xD0 }
  - { offsetInCU: 0x13E1E, offset: 0x13E1E, size: 0x8, addend: 0x0, symName: __ZSt7forwardIRKNSt7__cxx1112basic_stringIcSt11char_traitsIcESaIcEEEEOT_RNSt16remove_referenceIS8_E4typeE, symObjAddr: 0x6A68, symBinAddr: 0x10000E020, symSize: 0x14 }
  - { offsetInCU: 0x13E4E, offset: 0x13E4E, size: 0x8, addend: 0x0, symName: __ZSt8_DestroyIPNSt7__cxx1112basic_stringIcSt11char_traitsIcESaIcEEEEvT_S7_, symObjAddr: 0x6A40, symBinAddr: 0x10000DFF8, symSize: 0x28 }
  - { offsetInCU: 0x13ED3, offset: 0x13ED3, size: 0x8, addend: 0x0, symName: __ZSt12__niter_wrapIN9__gnu_cxx17__normal_iteratorIP11InstructionSt6vectorIS2_SaIS2_EEEES3_ET_S8_T0_, symObjAddr: 0x69E4, symBinAddr: 0x10000DF9C, symSize: 0x5C }
  - { offsetInCU: 0x13F1D, offset: 0x13F1D, size: 0x8, addend: 0x0, symName: __ZSt14__copy_move_a1ILb0EP11InstructionS1_ET1_T0_S3_S2_, symObjAddr: 0x69B8, symBinAddr: 0x10000DF70, symSize: 0x2C }
  - { offsetInCU: 0x13F81, offset: 0x13F81, size: 0x8, addend: 0x0, symName: __ZSt12__niter_baseIP11InstructionSt6vectorIS0_SaIS0_EEET_N9__gnu_cxx17__normal_iteratorIS5_T0_EE, symObjAddr: 0x6998, symBinAddr: 0x10000DF50, symSize: 0x20 }
  - { offsetInCU: 0x13FBB, offset: 0x13FBB, size: 0x8, addend: 0x0, symName: __ZSt34__uninitialized_move_if_noexcept_aIP11InstructionS1_SaIS0_EET0_T_S4_S3_RT1_, symObjAddr: 0x6948, symBinAddr: 0x10000DF00, symSize: 0x50 }
  - { offsetInCU: 0x14032, offset: 0x14032, size: 0x8, addend: 0x0, symName: __ZNKSt6vectorI11InstructionSaIS0_EE12_M_check_lenEmPKc, symObjAddr: 0x6878, symBinAddr: 0x10000DE30, symSize: 0xD0 }
  - { offsetInCU: 0x14086, offset: 0x14086, size: 0x8, addend: 0x0, symName: __ZSt24__uninitialized_fill_n_aIP11InstructionmS0_S0_ET_S2_T0_RKT1_RSaIT2_E, symObjAddr: 0x6848, symBinAddr: 0x10000DE00, symSize: 0x30 }
  - { offsetInCU: 0x140FB, offset: 0x140FB, size: 0x8, addend: 0x0, symName: __ZSt4fillIP11InstructionS0_EvT_S2_RKT0_, symObjAddr: 0x6818, symBinAddr: 0x10000DDD0, symSize: 0x30 }
  - { offsetInCU: 0x14155, offset: 0x14155, size: 0x8, addend: 0x0, symName: __ZSt13move_backwardIP11InstructionS1_ET0_T_S3_S2_, symObjAddr: 0x67D0, symBinAddr: 0x10000DD88, symSize: 0x48 }
  - { offsetInCU: 0x141AF, offset: 0x141AF, size: 0x8, addend: 0x0, symName: __ZSt22__uninitialized_move_aIP11InstructionS1_SaIS0_EET0_T_S4_S3_RT1_, symObjAddr: 0x6780, symBinAddr: 0x10000DD38, symSize: 0x50 }
  - { offsetInCU: 0x14228, offset: 0x14228, size: 0x8, addend: 0x0, symName: __ZN9__gnu_cxxmiIP11InstructionSt6vectorIS1_SaIS1_EEEENS_17__normal_iteratorIT_T0_E15difference_typeERKS9_SC_, symObjAddr: 0x672C, symBinAddr: 0x10000DCE4, symSize: 0x54 }
  - { offsetInCU: 0x14276, offset: 0x14276, size: 0x8, addend: 0x0, symName: __ZNSt6vectorI11InstructionSaIS0_EE16_Temporary_value6_M_valEv, symObjAddr: 0x6714, symBinAddr: 0x10000DCCC, symSize: 0x18 }
  - { offsetInCU: 0x142F4, offset: 0x142F4, size: 0x8, addend: 0x0, symName: __ZNSt6vectorI11InstructionSaIS0_EE16_Temporary_valueD1Ev, symObjAddr: 0x66B4, symBinAddr: 0x10000DC6C, symSize: 0x60 }
  - { offsetInCU: 0x143C2, offset: 0x143C2, size: 0x8, addend: 0x0, symName: __ZNSt6vectorI11InstructionSaIS0_EE16_Temporary_valueC1IJRKS0_EEEPS2_DpOT_, symObjAddr: 0x65E4, symBinAddr: 0x10000DB9C, symSize: 0xD0 }
  - { offsetInCU: 0x1445C, offset: 0x1445C, size: 0x8, addend: 0x0, symName: __ZSt4moveIN9__gnu_cxx17__normal_iteratorIP11InstructionSt6vectorIS2_SaIS2_EEEES7_ET0_T_S9_S8_, symObjAddr: 0x659C, symBinAddr: 0x10000DB54, symSize: 0x48 }
  - { offsetInCU: 0x144BA, offset: 0x144BA, size: 0x8, addend: 0x0, symName: __ZNK9__gnu_cxx17__normal_iteratorIPK11InstructionSt6vectorIS1_SaIS1_EEE4baseEv, symObjAddr: 0x6588, symBinAddr: 0x10000DB40, symSize: 0x14 }
  - { offsetInCU: 0x14553, offset: 0x14553, size: 0x8, addend: 0x0, symName: __ZN9__gnu_cxx17__normal_iteratorIPK11InstructionSt6vectorIS1_SaIS1_EEEC1ERKS3_, symObjAddr: 0x6560, symBinAddr: 0x10000DB18, symSize: 0x28 }
  - { offsetInCU: 0x14533, offset: 0x14533, size: 0x8, addend: 0x0, symName: __ZSt8_DestroyIP11InstructionEvT_S2_, symObjAddr: 0x6538, symBinAddr: 0x10000DAF0, symSize: 0x28 }
  - { offsetInCU: 0x14572, offset: 0x14572, size: 0x8, addend: 0x0, symName: __ZSt22__uninitialized_copy_aIN9__gnu_cxx17__normal_iteratorIP11InstructionSt6vectorIS2_SaIS2_EEEES3_S2_ET0_T_S9_S8_RSaIT1_E, symObjAddr: 0x6508, symBinAddr: 0x10000DAC0, symSize: 0x30 }
  - { offsetInCU: 0x145E2, offset: 0x145E2, size: 0x8, addend: 0x0, symName: __ZNSt12_Vector_baseI11InstructionSaIS0_EE11_M_allocateEm, symObjAddr: 0x64B8, symBinAddr: 0x10000DA70, symSize: 0x50 }
  - { offsetInCU: 0x14643, offset: 0x14643, size: 0x8, addend: 0x0, symName: __ZNSt6vectorI11InstructionSaIS0_EE17_S_check_init_lenEmRKS1_, symObjAddr: 0x6434, symBinAddr: 0x10000D9EC, symSize: 0x84 }
  - { offsetInCU: 0x14784, offset: 0x14784, size: 0x8, addend: 0x0, symName: __ZNSt12_Vector_baseI11InstructionSaIS0_EE12_Vector_implC1ERKS1_, symObjAddr: 0x63E8, symBinAddr: 0x10000D9A0, symSize: 0x4C }
  - { offsetInCU: 0x147CB, offset: 0x147CB, size: 0x8, addend: 0x0, symName: __ZSt9__find_ifIN9__gnu_cxx17__normal_iteratorIP11InstructionSt6vectorIS2_SaIS2_EEEENS0_5__ops10_Iter_predIZN13decoder_class22repeatLoopInstructionsERS6_EUlRKS2_E0_EEET_SG_SG_T0_St26random_access_iterator_tag, symObjAddr: 0x624C, symBinAddr: 0x10000D804, symSize: 0x19C }
  - { offsetInCU: 0x148E1, offset: 0x148E1, size: 0x8, addend: 0x0, symName: __ZN9__gnu_cxx5__ops10_Iter_predIZN13decoder_class22repeatLoopInstructionsERSt6vectorI11InstructionSaIS4_EEEUlRKS4_E0_EC1ESA_, symObjAddr: 0x6228, symBinAddr: 0x10000D7E0, symSize: 0x24 }
  - { offsetInCU: 0x14899, offset: 0x14899, size: 0x8, addend: 0x0, symName: __ZSt4moveIRZN13decoder_class22repeatLoopInstructionsERSt6vectorI11InstructionSaIS2_EEEUlRKS2_E0_EONSt16remove_referenceIT_E4typeEOSB_, symObjAddr: 0x6214, symBinAddr: 0x10000D7CC, symSize: 0x14 }
  - { offsetInCU: 0x148C9, offset: 0x148C9, size: 0x8, addend: 0x0, symName: __ZSt9__find_ifIN9__gnu_cxx17__normal_iteratorIP11InstructionSt6vectorIS2_SaIS2_EEEENS0_5__ops10_Iter_predIZN13decoder_class22repeatLoopInstructionsERS6_EUlRKS2_E_EEET_SG_SG_T0_St26random_access_iterator_tag, symObjAddr: 0x6078, symBinAddr: 0x10000D630, symSize: 0x19C }
  - { offsetInCU: 0x149DE, offset: 0x149DE, size: 0x8, addend: 0x0, symName: __ZN9__gnu_cxx5__ops10_Iter_predIZN13decoder_class22repeatLoopInstructionsERSt6vectorI11InstructionSaIS4_EEEUlRKS4_E_EC1ESA_, symObjAddr: 0x6054, symBinAddr: 0x10000D60C, symSize: 0x24 }
  - { offsetInCU: 0x14997, offset: 0x14997, size: 0x8, addend: 0x0, symName: __ZSt4moveIRZN13decoder_class22repeatLoopInstructionsERSt6vectorI11InstructionSaIS2_EEEUlRKS2_E_EONSt16remove_referenceIT_E4typeEOSB_, symObjAddr: 0x6040, symBinAddr: 0x10000D5F8, symSize: 0x14 }
  - { offsetInCU: 0x149F0, offset: 0x149F0, size: 0x8, addend: 0x0, symName: __ZSt22__uninitialized_copy_aIN9__gnu_cxx17__normal_iteratorIPK11InstructionSt6vectorIS2_SaIS2_EEEEPS2_S2_ET0_T_SB_SA_RSaIT1_E, symObjAddr: 0x6010, symBinAddr: 0x10000D5C8, symSize: 0x30 }
  - { offsetInCU: 0x14A60, offset: 0x14A60, size: 0x8, addend: 0x0, symName: __ZNKSt6vectorI11InstructionSaIS0_EE3endEv, symObjAddr: 0x5FE8, symBinAddr: 0x10000D5A0, symSize: 0x28 }
  - { offsetInCU: 0x14A88, offset: 0x14A88, size: 0x8, addend: 0x0, symName: __ZNKSt6vectorI11InstructionSaIS0_EE5beginEv, symObjAddr: 0x5FC4, symBinAddr: 0x10000D57C, symSize: 0x24 }
  - { offsetInCU: 0x14B13, offset: 0x14B13, size: 0x8, addend: 0x0, symName: __ZNSt12_Vector_baseI11InstructionSaIS0_EEC2EmRKS1_, symObjAddr: 0x5F70, symBinAddr: 0x10000D528, symSize: 0x54 }
  - { offsetInCU: 0x14B30, offset: 0x14B30, size: 0x8, addend: 0x0, symName: __ZNKSt12_Vector_baseI11InstructionSaIS0_EE19_M_get_Tp_allocatorEv, symObjAddr: 0x5F5C, symBinAddr: 0x10000D514, symSize: 0x14 }
  - { offsetInCU: 0x14B54, offset: 0x14B54, size: 0x8, addend: 0x0, symName: __ZSt22__uninitialized_copy_aIN9__gnu_cxx17__normal_iteratorIPK14RegisterStatusSt6vectorIS2_SaIS2_EEEEPS2_S2_ET0_T_SB_SA_RSaIT1_E, symObjAddr: 0x5F2C, symBinAddr: 0x10000D4E4, symSize: 0x30 }
  - { offsetInCU: 0x14BC4, offset: 0x14BC4, size: 0x8, addend: 0x0, symName: __ZNKSt6vectorI14RegisterStatusSaIS0_EE3endEv, symObjAddr: 0x5F04, symBinAddr: 0x10000D4BC, symSize: 0x28 }
  - { offsetInCU: 0x14BEC, offset: 0x14BEC, size: 0x8, addend: 0x0, symName: __ZNKSt6vectorI14RegisterStatusSaIS0_EE5beginEv, symObjAddr: 0x5EE0, symBinAddr: 0x10000D498, symSize: 0x24 }
  - { offsetInCU: 0x14C7A, offset: 0x14C7A, size: 0x8, addend: 0x0, symName: __ZNSt12_Vector_baseI14RegisterStatusSaIS0_EEC2EmRKS1_, symObjAddr: 0x5E8C, symBinAddr: 0x10000D444, symSize: 0x54 }
  - { offsetInCU: 0x14C94, offset: 0x14C94, size: 0x8, addend: 0x0, symName: __ZNKSt12_Vector_baseI14RegisterStatusSaIS0_EE19_M_get_Tp_allocatorEv, symObjAddr: 0x5E78, symBinAddr: 0x10000D430, symSize: 0x14 }
  - { offsetInCU: 0x14CB8, offset: 0x14CB8, size: 0x8, addend: 0x0, symName: __ZSt22__uninitialized_copy_aIN9__gnu_cxx17__normal_iteratorIPKiSt6vectorIiSaIiEEEEPiiET0_T_SA_S9_RSaIT1_E, symObjAddr: 0x5E48, symBinAddr: 0x10000D400, symSize: 0x30 }
  - { offsetInCU: 0x14D28, offset: 0x14D28, size: 0x8, addend: 0x0, symName: __ZNKSt6vectorIiSaIiEE3endEv, symObjAddr: 0x5E20, symBinAddr: 0x10000D3D8, symSize: 0x28 }
  - { offsetInCU: 0x14D50, offset: 0x14D50, size: 0x8, addend: 0x0, symName: __ZNKSt6vectorIiSaIiEE5beginEv, symObjAddr: 0x5DFC, symBinAddr: 0x10000D3B4, symSize: 0x24 }
  - { offsetInCU: 0x14DCD, offset: 0x14DCD, size: 0x8, addend: 0x0, symName: __ZNSt12_Vector_baseIiSaIiEEC2EmRKS0_, symObjAddr: 0x5DA8, symBinAddr: 0x10000D360, symSize: 0x54 }
  - { offsetInCU: 0x14DF8, offset: 0x14DF8, size: 0x8, addend: 0x0, symName: __ZNKSt12_Vector_baseIiSaIiEE19_M_get_Tp_allocatorEv, symObjAddr: 0x5D94, symBinAddr: 0x10000D34C, symSize: 0x14 }
  - { offsetInCU: 0x14E5B, offset: 0x14E5B, size: 0x8, addend: 0x0, symName: __ZNSt12_Vector_baseIiSaIiEE19_M_get_Tp_allocatorEv, symObjAddr: 0x5D80, symBinAddr: 0x10000D338, symSize: 0x14 }
  - { offsetInCU: 0x14E83, offset: 0x14E83, size: 0x8, addend: 0x0, symName: __ZNSt6vectorIiSaIiEE19_M_range_initializeIPKiEEvT_S5_St20forward_iterator_tag, symObjAddr: 0x5C9C, symBinAddr: 0x10000D254, symSize: 0xE4 }
  - { offsetInCU: 0x14F9A, offset: 0x14F9A, size: 0x8, addend: 0x0, symName: __ZNKSt16initializer_listIiE3endEv, symObjAddr: 0x5C64, symBinAddr: 0x10000D21C, symSize: 0x38 }
  - { offsetInCU: 0x14FC2, offset: 0x14FC2, size: 0x8, addend: 0x0, symName: __ZNKSt16initializer_listIiE5beginEv, symObjAddr: 0x5C4C, symBinAddr: 0x10000D204, symSize: 0x18 }
  - { offsetInCU: 0x15027, offset: 0x15027, size: 0x8, addend: 0x0, symName: __ZNSt12_Vector_baseIiSaIiEED2Ev, symObjAddr: 0x5BFC, symBinAddr: 0x10000D1B4, symSize: 0x50 }
  - { offsetInCU: 0x15077, offset: 0x15077, size: 0x8, addend: 0x0, symName: __ZNSt12_Vector_baseIiSaIiEEC2ERKS0_, symObjAddr: 0x5BD4, symBinAddr: 0x10000D18C, symSize: 0x28 }
  - { offsetInCU: 0x150D5, offset: 0x150D5, size: 0x8, addend: 0x0, symName: __ZNSt12_Vector_baseIiSaIiEE12_Vector_implD1Ev, symObjAddr: 0x5BA8, symBinAddr: 0x10000D160, symSize: 0x2C }
  - { offsetInCU: 0x1512F, offset: 0x1512F, size: 0x8, addend: 0x0, symName: __ZNSt15__new_allocatorIiED2Ev, symObjAddr: 0x5B94, symBinAddr: 0x10000D14C, symSize: 0x14 }
  - { offsetInCU: 0x1518A, offset: 0x1518A, size: 0x8, addend: 0x0, symName: __ZNSt12_Vector_baseI14RegisterStatusSaIS0_EE19_M_get_Tp_allocatorEv, symObjAddr: 0x5B80, symBinAddr: 0x10000D138, symSize: 0x14 }
  - { offsetInCU: 0x151B2, offset: 0x151B2, size: 0x8, addend: 0x0, symName: __ZNSt6vectorI14RegisterStatusSaIS0_EE19_M_range_initializeIPKS0_EEvT_S6_St20forward_iterator_tag, symObjAddr: 0x5A9C, symBinAddr: 0x10000D054, symSize: 0xE4 }
  - { offsetInCU: 0x152C9, offset: 0x152C9, size: 0x8, addend: 0x0, symName: __ZNKSt16initializer_listI14RegisterStatusE3endEv, symObjAddr: 0x5A64, symBinAddr: 0x10000D01C, symSize: 0x38 }
  - { offsetInCU: 0x152F1, offset: 0x152F1, size: 0x8, addend: 0x0, symName: __ZNKSt16initializer_listI14RegisterStatusE5beginEv, symObjAddr: 0x5A4C, symBinAddr: 0x10000D004, symSize: 0x18 }
  - { offsetInCU: 0x15367, offset: 0x15367, size: 0x8, addend: 0x0, symName: __ZNSt12_Vector_baseI14RegisterStatusSaIS0_EED2Ev, symObjAddr: 0x59FC, symBinAddr: 0x10000CFB4, symSize: 0x50 }
  - { offsetInCU: 0x153B7, offset: 0x153B7, size: 0x8, addend: 0x0, symName: __ZNSt12_Vector_baseI14RegisterStatusSaIS0_EEC2ERKS1_, symObjAddr: 0x59D4, symBinAddr: 0x10000CF8C, symSize: 0x28 }
  - { offsetInCU: 0x15415, offset: 0x15415, size: 0x8, addend: 0x0, symName: __ZNSt12_Vector_baseI14RegisterStatusSaIS0_EE12_Vector_implD1Ev, symObjAddr: 0x59A8, symBinAddr: 0x10000CF60, symSize: 0x2C }
  - { offsetInCU: 0x1546D, offset: 0x1546D, size: 0x8, addend: 0x0, symName: __ZNSt15__new_allocatorI14RegisterStatusED2Ev, symObjAddr: 0x5994, symBinAddr: 0x10000CF4C, symSize: 0x14 }
  - { offsetInCU: 0x154B9, offset: 0x154B9, size: 0x8, addend: 0x0, symName: __ZNSt12_Vector_baseI18ReservationStationSaIS0_EE19_M_get_Tp_allocatorEv, symObjAddr: 0x5980, symBinAddr: 0x10000CF38, symSize: 0x14 }
  - { offsetInCU: 0x154E1, offset: 0x154E1, size: 0x8, addend: 0x0, symName: __ZNSt6vectorI18ReservationStationSaIS0_EE19_M_range_initializeIPKS0_EEvT_S6_St20forward_iterator_tag, symObjAddr: 0x5884, symBinAddr: 0x10000CE3C, symSize: 0xFC }
  - { offsetInCU: 0x155F8, offset: 0x155F8, size: 0x8, addend: 0x0, symName: __ZNKSt16initializer_listI18ReservationStationE3endEv, symObjAddr: 0x583C, symBinAddr: 0x10000CDF4, symSize: 0x48 }
  - { offsetInCU: 0x15620, offset: 0x15620, size: 0x8, addend: 0x0, symName: __ZNKSt16initializer_listI18ReservationStationE5beginEv, symObjAddr: 0x5824, symBinAddr: 0x10000CDDC, symSize: 0x18 }
  - { offsetInCU: 0x1569A, offset: 0x1569A, size: 0x8, addend: 0x0, symName: __ZNSt12_Vector_baseI18ReservationStationSaIS0_EED2Ev, symObjAddr: 0x57C8, symBinAddr: 0x10000CD80, symSize: 0x5C }
  - { offsetInCU: 0x156EA, offset: 0x156EA, size: 0x8, addend: 0x0, symName: __ZNSt12_Vector_baseI18ReservationStationSaIS0_EEC2ERKS1_, symObjAddr: 0x57A0, symBinAddr: 0x10000CD58, symSize: 0x28 }
  - { offsetInCU: 0x15748, offset: 0x15748, size: 0x8, addend: 0x0, symName: __ZNSt12_Vector_baseI18ReservationStationSaIS0_EE12_Vector_implD1Ev, symObjAddr: 0x5774, symBinAddr: 0x10000CD2C, symSize: 0x2C }
  - { offsetInCU: 0x157A0, offset: 0x157A0, size: 0x8, addend: 0x0, symName: __ZNSt15__new_allocatorI18ReservationStationED2Ev, symObjAddr: 0x5760, symBinAddr: 0x10000CD18, symSize: 0x14 }
  - { offsetInCU: 0x157AD, offset: 0x157AD, size: 0x8, addend: 0x0, symName: __ZNSt12_Vector_baseI11InstructionSaIS0_EE13_M_deallocateEPS0_m, symObjAddr: 0x5708, symBinAddr: 0x10000CCC0, symSize: 0x58 }
  - { offsetInCU: 0x15880, offset: 0x15880, size: 0x8, addend: 0x0, symName: __ZNSt12_Vector_baseI11InstructionSaIS0_EE17_Vector_impl_dataC2Ev, symObjAddr: 0x56DC, symBinAddr: 0x10000CC94, symSize: 0x2C }
  - { offsetInCU: 0x15869, offset: 0x15869, size: 0x8, addend: 0x0, symName: __ZNSt6vectorI11InstructionSaIS0_EE12emplace_backIJS0_EEERS0_DpOT_, symObjAddr: 0x55EC, symBinAddr: 0x10000CBA4, symSize: 0xF0 }
  - { offsetInCU: 0x15917, offset: 0x15917, size: 0x8, addend: 0x0, symName: __ZSt4moveIR11InstructionEONSt16remove_referenceIT_E4typeEOS3_, symObjAddr: 0x55D8, symBinAddr: 0x10000CB90, symSize: 0x14 }
  - { offsetInCU: 0x1594B, offset: 0x1594B, size: 0x8, addend: 0x0, symName: __ZNK9__gnu_cxx17__normal_iteratorIPNSt7__cxx1112basic_stringIcSt11char_traitsIcESaIcEEESt6vectorIS6_SaIS6_EEE4baseEv, symObjAddr: 0x55C4, symBinAddr: 0x10000CB7C, symSize: 0x14 }
  - { offsetInCU: 0x15A0A, offset: 0x15A0A, size: 0x8, addend: 0x0, symName: __ZN9__gnu_cxx17__normal_iteratorIPNSt7__cxx1112basic_stringIcSt11char_traitsIcESaIcEEESt6vectorIS6_SaIS6_EEEC1ERKS7_, symObjAddr: 0x559C, symBinAddr: 0x10000CB54, symSize: 0x28 }
  - { offsetInCU: 0x159C8, offset: 0x159C8, size: 0x8, addend: 0x0, symName: __ZNSt6vectorINSt7__cxx1112basic_stringIcSt11char_traitsIcESaIcEEESaIS5_EE17_M_realloc_appendIJRKS5_EEEvDpOT_, symObjAddr: 0x53A0, symBinAddr: 0x10000C958, symSize: 0x1FC }
  - { offsetInCU: 0x15BC0, offset: 0x15BC0, size: 0x8, addend: 0x0, symName: __ZZNSt6vectorINSt7__cxx1112basic_stringIcSt11char_traitsIcESaIcEEESaIS5_EE17_M_realloc_appendIJRKS5_EEEvDpOT_EN6_GuardC1EPS5_mRS6_, symObjAddr: 0x52FC, symBinAddr: 0x10000C8B4, symSize: 0x44 }
  - { offsetInCU: 0x15BFE, offset: 0x15BFE, size: 0x8, addend: 0x0, symName: __ZZNSt6vectorINSt7__cxx1112basic_stringIcSt11char_traitsIcESaIcEEESaIS5_EE17_M_realloc_appendIJRKS5_EEEvDpOT_EN6_GuardD1Ev, symObjAddr: 0x5340, symBinAddr: 0x10000C8F8, symSize: 0x60 }
  - { offsetInCU: 0x15CF3, offset: 0x15CF3, size: 0x8, addend: 0x0, symName: __ZNSt12_Vector_baseINSt7__cxx1112basic_stringIcSt11char_traitsIcESaIcEEESaIS5_EE19_M_get_Tp_allocatorEv, symObjAddr: 0x52E8, symBinAddr: 0x10000C8A0, symSize: 0x14 }
  - { offsetInCU: 0x15D1B, offset: 0x15D1B, size: 0x8, addend: 0x0, symName: __ZNSt12_Vector_baseINSt7__cxx1112basic_stringIcSt11char_traitsIcESaIcEEESaIS5_EE13_M_deallocateEPS5_m, symObjAddr: 0x5290, symBinAddr: 0x10000C848, symSize: 0x58 }
  - { offsetInCU: 0x15E07, offset: 0x15E07, size: 0x8, addend: 0x0, symName: __ZNSt15__new_allocatorINSt7__cxx1112basic_stringIcSt11char_traitsIcESaIcEEEED2Ev, symObjAddr: 0x527C, symBinAddr: 0x10000C834, symSize: 0x14 }
  - { offsetInCU: 0x15E5C, offset: 0x15E5C, size: 0x8, addend: 0x0, symName: __ZNSt12_Vector_baseINSt7__cxx1112basic_stringIcSt11char_traitsIcESaIcEEESaIS5_EE17_Vector_impl_dataC2Ev, symObjAddr: 0x5250, symBinAddr: 0x10000C808, symSize: 0x2C }
  - { offsetInCU: 0x15E2E, offset: 0x15E2E, size: 0x8, addend: 0x0, symName: __ZSt13__copy_move_aILb0EN9__gnu_cxx17__normal_iteratorIP11InstructionSt6vectorIS2_SaIS2_EEEES7_ET1_T0_S9_S8_, symObjAddr: 0x51F0, symBinAddr: 0x10000C7A8, symSize: 0x60 }
  - { offsetInCU: 0x15E92, offset: 0x15E92, size: 0x8, addend: 0x0, symName: __ZSt12__miter_baseIN9__gnu_cxx17__normal_iteratorIP11InstructionSt6vectorIS2_SaIS2_EEEEET_S8_, symObjAddr: 0x51DC, symBinAddr: 0x10000C794, symSize: 0x14 }
  - { offsetInCU: 0x15EC7, offset: 0x15EC7, size: 0x8, addend: 0x0, symName: __ZNSt6vectorI11InstructionSaIS0_EE14_M_fill_insertEN9__gnu_cxx17__normal_iteratorIPS0_S2_EEmRKS0_, symObjAddr: 0x4CC8, symBinAddr: 0x10000C280, symSize: 0x514 }
  - { offsetInCU: 0x1608F, offset: 0x1608F, size: 0x8, addend: 0x0, symName: __ZNSt6vectorI11InstructionSaIS0_EE8_M_eraseEN9__gnu_cxx17__normal_iteratorIPS0_S2_EE, symObjAddr: 0x4C08, symBinAddr: 0x10000C1C0, symSize: 0xC0 }
  - { offsetInCU: 0x1611B, offset: 0x1611B, size: 0x8, addend: 0x0, symName: __ZN9__gnu_cxxmiIPK11InstructionSt6vectorIS1_SaIS1_EEEENS_17__normal_iteratorIT_T0_E15difference_typeERKSA_SD_, symObjAddr: 0x4BB4, symBinAddr: 0x10000C16C, symSize: 0x54 }
  - { offsetInCU: 0x16169, offset: 0x16169, size: 0x8, addend: 0x0, symName: __ZNKSt6vectorI11InstructionSaIS0_EE6cbeginEv, symObjAddr: 0x4B90, symBinAddr: 0x10000C148, symSize: 0x24 }
  - { offsetInCU: 0x161CC, offset: 0x161CC, size: 0x8, addend: 0x0, symName: __ZNSt12_Vector_baseI11InstructionSaIS0_EE19_M_get_Tp_allocatorEv, symObjAddr: 0x4B7C, symBinAddr: 0x10000C134, symSize: 0x14 }
  - { offsetInCU: 0x161F4, offset: 0x161F4, size: 0x8, addend: 0x0, symName: __ZNSt6vectorI11InstructionSaIS0_EE19_M_range_initializeIN9__gnu_cxx17__normal_iteratorIPS0_S2_EEEEvT_S8_St20forward_iterator_tag, symObjAddr: 0x4A8C, symBinAddr: 0x10000C044, symSize: 0xF0 }
  - { offsetInCU: 0x16375, offset: 0x16375, size: 0x8, addend: 0x0, symName: __ZNSt12_Vector_baseI11InstructionSaIS0_EEC2ERKS1_, symObjAddr: 0x4A64, symBinAddr: 0x10000C01C, symSize: 0x28 }
  - { offsetInCU: 0x163BD, offset: 0x163BD, size: 0x8, addend: 0x0, symName: __ZNSt15__new_allocatorI11InstructionED2Ev, symObjAddr: 0x4A50, symBinAddr: 0x10000C008, symSize: 0x14 }
  - { offsetInCU: 0x163CD, offset: 0x163CD, size: 0x8, addend: 0x0, symName: __ZSt9__find_ifIN9__gnu_cxx17__normal_iteratorIP11InstructionSt6vectorIS2_SaIS2_EEEENS0_5__ops10_Iter_predIZN13decoder_class22repeatLoopInstructionsERS6_EUlRKS2_E0_EEET_SG_SG_T0_, symObjAddr: 0x4A20, symBinAddr: 0x10000BFD8, symSize: 0x30 }
  - { offsetInCU: 0x16448, offset: 0x16448, size: 0x8, addend: 0x0, symName: __ZN9__gnu_cxx5__ops11__pred_iterIZN13decoder_class22repeatLoopInstructionsERSt6vectorI11InstructionSaIS4_EEEUlRKS4_E0_EENS0_10_Iter_predIT_EESC_, symObjAddr: 0x49E8, symBinAddr: 0x10000BFA0, symSize: 0x38 }
  - { offsetInCU: 0x16479, offset: 0x16479, size: 0x8, addend: 0x0, symName: __ZSt9__find_ifIN9__gnu_cxx17__normal_iteratorIP11InstructionSt6vectorIS2_SaIS2_EEEENS0_5__ops10_Iter_predIZN13decoder_class22repeatLoopInstructionsERS6_EUlRKS2_E_EEET_SG_SG_T0_, symObjAddr: 0x49B8, symBinAddr: 0x10000BF70, symSize: 0x30 }
  - { offsetInCU: 0x164F4, offset: 0x164F4, size: 0x8, addend: 0x0, symName: __ZN9__gnu_cxx5__ops11__pred_iterIZN13decoder_class22repeatLoopInstructionsERSt6vectorI11InstructionSaIS4_EEEUlRKS4_E_EENS0_10_Iter_predIT_EESC_, symObjAddr: 0x4980, symBinAddr: 0x10000BF38, symSize: 0x38 }
  - { offsetInCU: 0x16529, offset: 0x16529, size: 0x8, addend: 0x0, symName: __ZNK9__gnu_cxx17__normal_iteratorIP11InstructionSt6vectorIS1_SaIS1_EEE4baseEv, symObjAddr: 0x496C, symBinAddr: 0x10000BF24, symSize: 0x14 }
  - { offsetInCU: 0x165C1, offset: 0x165C1, size: 0x8, addend: 0x0, symName: __ZN9__gnu_cxx17__normal_iteratorIP11InstructionSt6vectorIS1_SaIS1_EEEC1ERKS2_, symObjAddr: 0x4944, symBinAddr: 0x10000BEFC, symSize: 0x28 }
  - { offsetInCU: 0x165A8, offset: 0x165A8, size: 0x8, addend: 0x0, symName: __ZSt4moveIRNSt7__cxx1112basic_stringIcSt11char_traitsIcESaIcEEEEONSt16remove_referenceIT_E4typeEOS8_, symObjAddr: 0x4930, symBinAddr: 0x10000BEE8, symSize: 0x14 }
  - { offsetInCU: 0x165DC, offset: 0x165DC, size: 0x8, addend: 0x0, symName: __ZNSt7__cxx1112basic_stringIcSt11char_traitsIcESaIcEE12_M_constructIPKcEEvT_S8_St20forward_iterator_tag, symObjAddr: 0x4830, symBinAddr: 0x10000BDE8, symSize: 0x100 }
  - { offsetInCU: 0x16750, offset: 0x16750, size: 0x8, addend: 0x0, symName: __ZZNSt7__cxx1112basic_stringIcSt11char_traitsIcESaIcEE12_M_constructIPKcEEvT_S8_St20forward_iterator_tagEN6_GuardC1EPS4_, symObjAddr: 0x47D8, symBinAddr: 0x10000BD90, symSize: 0x24 }
  - { offsetInCU: 0x16781, offset: 0x16781, size: 0x8, addend: 0x0, symName: __ZZNSt7__cxx1112basic_stringIcSt11char_traitsIcESaIcEE12_M_constructIPKcEEvT_S8_St20forward_iterator_tagEN6_GuardD1Ev, symObjAddr: 0x47FC, symBinAddr: 0x10000BDB4, symSize: 0x34 }
  - { offsetInCU: 0x16824, offset: 0x16824, size: 0x8, addend: 0x0, symName: __ZNSt15__new_allocatorIcED2Ev, symObjAddr: 0x47C4, symBinAddr: 0x10000BD7C, symSize: 0x14 }
  - { offsetInCU: 0x1686A, offset: 0x1686A, size: 0x8, addend: 0x0, symName: __ZN9__gnu_cxx11char_traitsIcE2eqERKcS3_, symObjAddr: 0x4794, symBinAddr: 0x10000BD4C, symSize: 0x30 }
  - { offsetInCU: 0x168F1, offset: 0x168F1, size: 0x8, addend: 0x0, symName: __ZNSt6vectorI11InstructionSaIS0_EEC1ERKS2_, symObjAddr: 0x4680, symBinAddr: 0x10000BC38, symSize: 0x114 }
  - { offsetInCU: 0x16A2D, offset: 0x16A2D, size: 0x8, addend: 0x0, symName: __ZNSt6vectorI14RegisterStatusSaIS0_EEC1ERKS2_, symObjAddr: 0x456C, symBinAddr: 0x10000BB24, symSize: 0x114 }
  - { offsetInCU: 0x16B55, offset: 0x16B55, size: 0x8, addend: 0x0, symName: __ZNSt6vectorIiSaIiEEC1ERKS1_, symObjAddr: 0x4458, symBinAddr: 0x10000BA10, symSize: 0x114 }
  - { offsetInCU: 0x16C85, offset: 0x16C85, size: 0x8, addend: 0x0, symName: __ZNSt6vectorIiSaIiEED1Ev, symObjAddr: 0x43FC, symBinAddr: 0x10000B9B4, symSize: 0x5C }
  - { offsetInCU: 0x16D30, offset: 0x16D30, size: 0x8, addend: 0x0, symName: __ZNSt6vectorIiSaIiEEC1ESt16initializer_listIiERKS0_, symObjAddr: 0x438C, symBinAddr: 0x10000B944, symSize: 0x70 }
  - { offsetInCU: 0x16DB0, offset: 0x16DB0, size: 0x8, addend: 0x0, symName: __ZNSt6vectorI14RegisterStatusSaIS0_EED1Ev, symObjAddr: 0x4330, symBinAddr: 0x10000B8E8, symSize: 0x5C }
  - { offsetInCU: 0x16E5D, offset: 0x16E5D, size: 0x8, addend: 0x0, symName: __ZNSt6vectorI14RegisterStatusSaIS0_EEC1ESt16initializer_listIS0_ERKS1_, symObjAddr: 0x42C0, symBinAddr: 0x10000B878, symSize: 0x70 }
  - { offsetInCU: 0x16ECE, offset: 0x16ECE, size: 0x8, addend: 0x0, symName: __ZNSt6vectorI18ReservationStationSaIS0_EED1Ev, symObjAddr: 0x4264, symBinAddr: 0x10000B81C, symSize: 0x5C }
  - { offsetInCU: 0x16F7B, offset: 0x16F7B, size: 0x8, addend: 0x0, symName: __ZNSt6vectorI18ReservationStationSaIS0_EEC1ESt16initializer_listIS0_ERKS1_, symObjAddr: 0x41F4, symBinAddr: 0x10000B7AC, symSize: 0x70 }
  - { offsetInCU: 0x16F9D, offset: 0x16F9D, size: 0x8, addend: 0x0, symName: __ZNK9__gnu_cxx17__normal_iteratorIP11InstructionSt6vectorIS1_SaIS1_EEEdeEv, symObjAddr: 0x41DC, symBinAddr: 0x10000B794, symSize: 0x18 }
  - { offsetInCU: 0x16FC5, offset: 0x16FC5, size: 0x8, addend: 0x0, symName: __ZN9__gnu_cxx17__normal_iteratorIP11InstructionSt6vectorIS1_SaIS1_EEEppEv, symObjAddr: 0x41B4, symBinAddr: 0x10000B76C, symSize: 0x28 }
  - { offsetInCU: 0x17038, offset: 0x17038, size: 0x8, addend: 0x0, symName: __ZNSt12_Vector_baseI11InstructionSaIS0_EED2Ev, symObjAddr: 0x4150, symBinAddr: 0x10000B708, symSize: 0x64 }
  - { offsetInCU: 0x17084, offset: 0x17084, size: 0x8, addend: 0x0, symName: __ZNSt12_Vector_baseI11InstructionSaIS0_EE12_Vector_implC1Ev, symObjAddr: 0x4118, symBinAddr: 0x10000B6D0, symSize: 0x38 }
  - { offsetInCU: 0x170B4, offset: 0x170B4, size: 0x8, addend: 0x0, symName: __ZSt7setfillIcESt8_SetfillIT_ES1_, symObjAddr: 0x4104, symBinAddr: 0x10000B6BC, symSize: 0x14 }
  - { offsetInCU: 0x170E8, offset: 0x170E8, size: 0x8, addend: 0x0, symName: __ZNKSt6vectorI14RegisterStatusSaIS0_EE4sizeEv, symObjAddr: 0x40DC, symBinAddr: 0x10000B694, symSize: 0x28 }
  - { offsetInCU: 0x17110, offset: 0x17110, size: 0x8, addend: 0x0, symName: __ZNSt6vectorI11InstructionSaIS0_EE9push_backEOS0_, symObjAddr: 0x40AC, symBinAddr: 0x10000B664, symSize: 0x30 }
  - { offsetInCU: 0x17148, offset: 0x17148, size: 0x8, addend: 0x0, symName: __ZNSt6vectorINSt7__cxx1112basic_stringIcSt11char_traitsIcESaIcEEESaIS5_EEixEm, symObjAddr: 0x4084, symBinAddr: 0x10000B63C, symSize: 0x28 }
  - { offsetInCU: 0x17180, offset: 0x17180, size: 0x8, addend: 0x0, symName: __ZNK9__gnu_cxx17__normal_iteratorIPNSt7__cxx1112basic_stringIcSt11char_traitsIcESaIcEEESt6vectorIS6_SaIS6_EEEdeEv, symObjAddr: 0x406C, symBinAddr: 0x10000B624, symSize: 0x18 }
  - { offsetInCU: 0x171A8, offset: 0x171A8, size: 0x8, addend: 0x0, symName: __ZN9__gnu_cxx17__normal_iteratorIPNSt7__cxx1112basic_stringIcSt11char_traitsIcESaIcEEESt6vectorIS6_SaIS6_EEEppEv, symObjAddr: 0x4044, symBinAddr: 0x10000B5FC, symSize: 0x28 }
  - { offsetInCU: 0x171CC, offset: 0x171CC, size: 0x8, addend: 0x0, symName: __ZN9__gnu_cxxneIPNSt7__cxx1112basic_stringIcSt11char_traitsIcESaIcEEESt6vectorIS6_SaIS6_EEEEbRKNS_17__normal_iteratorIT_T0_EESG_, symObjAddr: 0x4000, symBinAddr: 0x10000B5B8, symSize: 0x44 }
  - { offsetInCU: 0x1721A, offset: 0x1721A, size: 0x8, addend: 0x0, symName: __ZNSt6vectorINSt7__cxx1112basic_stringIcSt11char_traitsIcESaIcEEESaIS5_EE3endEv, symObjAddr: 0x3FD8, symBinAddr: 0x10000B590, symSize: 0x28 }
  - { offsetInCU: 0x17242, offset: 0x17242, size: 0x8, addend: 0x0, symName: __ZNSt6vectorINSt7__cxx1112basic_stringIcSt11char_traitsIcESaIcEEESaIS5_EE5beginEv, symObjAddr: 0x3FB4, symBinAddr: 0x10000B56C, symSize: 0x24 }
  - { offsetInCU: 0x1726A, offset: 0x1726A, size: 0x8, addend: 0x0, symName: __ZNSt6vectorINSt7__cxx1112basic_stringIcSt11char_traitsIcESaIcEEESaIS5_EE9push_backERKS5_, symObjAddr: 0x3EB8, symBinAddr: 0x10000B470, symSize: 0xFC }
  - { offsetInCU: 0x17302, offset: 0x17302, size: 0x8, addend: 0x0, symName: __ZSteqIcSt11char_traitsIcESaIcEEbRKNSt7__cxx1112basic_stringIT_T0_T1_EEPKS5_, symObjAddr: 0x3E44, symBinAddr: 0x10000B3FC, symSize: 0x74 }
  - { offsetInCU: 0x173C4, offset: 0x173C4, size: 0x8, addend: 0x0, symName: __ZNSt6vectorINSt7__cxx1112basic_stringIcSt11char_traitsIcESaIcEEESaIS5_EED1Ev, symObjAddr: 0x3DE8, symBinAddr: 0x10000B3A0, symSize: 0x5C }
  - { offsetInCU: 0x17448, offset: 0x17448, size: 0x8, addend: 0x0, symName: __ZNSt12_Vector_baseINSt7__cxx1112basic_stringIcSt11char_traitsIcESaIcEEESaIS5_EED2Ev, symObjAddr: 0x3D98, symBinAddr: 0x10000B350, symSize: 0x50 }
  - { offsetInCU: 0x174B1, offset: 0x174B1, size: 0x8, addend: 0x0, symName: __ZNSt12_Vector_baseINSt7__cxx1112basic_stringIcSt11char_traitsIcESaIcEEESaIS5_EE12_Vector_implC1Ev, symObjAddr: 0x3D60, symBinAddr: 0x10000B318, symSize: 0x38 }
  - { offsetInCU: 0x17545, offset: 0x17545, size: 0x8, addend: 0x0, symName: __ZNSt7__cxx1112basic_stringIcSt11char_traitsIcESaIcEEC1IS3_EEPKcRKS3_, symObjAddr: 0x3CC4, symBinAddr: 0x10000B27C, symSize: 0x9C }
  - { offsetInCU: 0x17574, offset: 0x17574, size: 0x8, addend: 0x0, symName: __ZN9__gnu_cxx17__normal_iteratorIP11InstructionSt6vectorIS1_SaIS1_EEEpLEl, symObjAddr: 0x3C84, symBinAddr: 0x10000B23C, symSize: 0x40 }
  - { offsetInCU: 0x175A8, offset: 0x175A8, size: 0x8, addend: 0x0, symName: __ZSt4copyIN9__gnu_cxx17__normal_iteratorIP11InstructionSt6vectorIS2_SaIS2_EEEES7_ET0_T_S9_S8_, symObjAddr: 0x3C3C, symBinAddr: 0x10000B1F4, symSize: 0x48 }
  - { offsetInCU: 0x17606, offset: 0x17606, size: 0x8, addend: 0x0, symName: __ZNSt6vectorI11InstructionSaIS0_EE6insertEN9__gnu_cxx17__normal_iteratorIPKS0_S2_EEmRS5_, symObjAddr: 0x3BBC, symBinAddr: 0x10000B174, symSize: 0x80 }
  - { offsetInCU: 0x1766E, offset: 0x1766E, size: 0x8, addend: 0x0, symName: __ZNSt6vectorI11InstructionSaIS0_EE5eraseEN9__gnu_cxx17__normal_iteratorIPKS0_S2_EE, symObjAddr: 0x3B68, symBinAddr: 0x10000B120, symSize: 0x54 }
  - { offsetInCU: 0x17730, offset: 0x17730, size: 0x8, addend: 0x0, symName: __ZN9__gnu_cxx17__normal_iteratorIPK11InstructionSt6vectorIS1_SaIS1_EEEC1IPS1_vEERKNS0_IT_S6_EE, symObjAddr: 0x3B38, symBinAddr: 0x10000B0F0, symSize: 0x30 }
  - { offsetInCU: 0x17751, offset: 0x17751, size: 0x8, addend: 0x0, symName: __ZNSt6vectorI11InstructionSaIS0_EED1Ev, symObjAddr: 0x3ADC, symBinAddr: 0x10000B094, symSize: 0x5C }
  - { offsetInCU: 0x1782C, offset: 0x1782C, size: 0x8, addend: 0x0, symName: __ZNSt6vectorI11InstructionSaIS0_EEC1IN9__gnu_cxx17__normal_iteratorIPS0_S2_EEvEET_S8_RKS1_, symObjAddr: 0x3A78, symBinAddr: 0x10000B030, symSize: 0x64 }
  - { offsetInCU: 0x17871, offset: 0x17871, size: 0x8, addend: 0x0, symName: __ZNK9__gnu_cxx17__normal_iteratorIP11InstructionSt6vectorIS1_SaIS1_EEEplEl, symObjAddr: 0x3A2C, symBinAddr: 0x10000AFE4, symSize: 0x4C }
  - { offsetInCU: 0x178A9, offset: 0x178A9, size: 0x8, addend: 0x0, symName: __ZNK9__gnu_cxx17__normal_iteratorIP11InstructionSt6vectorIS1_SaIS1_EEEptEv, symObjAddr: 0x3A14, symBinAddr: 0x10000AFCC, symSize: 0x18 }
  - { offsetInCU: 0x178CD, offset: 0x178CD, size: 0x8, addend: 0x0, symName: __ZSt7find_ifIN9__gnu_cxx17__normal_iteratorIP11InstructionSt6vectorIS2_SaIS2_EEEEZN13decoder_class22repeatLoopInstructionsERS6_EUlRKS2_E0_ET_SD_SD_T0_, symObjAddr: 0x39D8, symBinAddr: 0x10000AF90, symSize: 0x3C }
  - { offsetInCU: 0x17927, offset: 0x17927, size: 0x8, addend: 0x0, symName: __ZN9__gnu_cxxeqIP11InstructionSt6vectorIS1_SaIS1_EEEEbRKNS_17__normal_iteratorIT_T0_EESB_, symObjAddr: 0x3994, symBinAddr: 0x10000AF4C, symSize: 0x44 }
  - { offsetInCU: 0x17971, offset: 0x17971, size: 0x8, addend: 0x0, symName: __ZSt7find_ifIN9__gnu_cxx17__normal_iteratorIP11InstructionSt6vectorIS2_SaIS2_EEEEZN13decoder_class22repeatLoopInstructionsERS6_EUlRKS2_E_ET_SD_SD_T0_, symObjAddr: 0x3958, symBinAddr: 0x10000AF10, symSize: 0x3C }
  - { offsetInCU: 0x179CB, offset: 0x179CB, size: 0x8, addend: 0x0, symName: __ZN9__gnu_cxxneIP11InstructionSt6vectorIS1_SaIS1_EEEEbRKNS_17__normal_iteratorIT_T0_EESB_, symObjAddr: 0x3914, symBinAddr: 0x10000AECC, symSize: 0x44 }
  - { offsetInCU: 0x17A19, offset: 0x17A19, size: 0x8, addend: 0x0, symName: __ZNSt6vectorI11InstructionSaIS0_EE3endEv, symObjAddr: 0x38EC, symBinAddr: 0x10000AEA4, symSize: 0x28 }
  - { offsetInCU: 0x17A41, offset: 0x17A41, size: 0x8, addend: 0x0, symName: __ZNSt6vectorI11InstructionSaIS0_EE5beginEv, symObjAddr: 0x38C8, symBinAddr: 0x10000AE80, symSize: 0x24 }
  - { offsetInCU: 0x17A69, offset: 0x17A69, size: 0x8, addend: 0x0, symName: __ZNKSt6vectorIiSaIiEE4sizeEv, symObjAddr: 0x38A0, symBinAddr: 0x10000AE58, symSize: 0x28 }
  - { offsetInCU: 0x17A91, offset: 0x17A91, size: 0x8, addend: 0x0, symName: __ZNKSt6vectorI18ReservationStationSaIS0_EE4sizeEv, symObjAddr: 0x386C, symBinAddr: 0x10000AE24, symSize: 0x34 }
  - { offsetInCU: 0x17AB9, offset: 0x17AB9, size: 0x8, addend: 0x0, symName: __ZNSt6vectorIiSaIiEEixEm, symObjAddr: 0x3844, symBinAddr: 0x10000ADFC, symSize: 0x28 }
  - { offsetInCU: 0x17AF1, offset: 0x17AF1, size: 0x8, addend: 0x0, symName: __ZNSt6vectorI14RegisterStatusSaIS0_EEixEm, symObjAddr: 0x381C, symBinAddr: 0x10000ADD4, symSize: 0x28 }
  - { offsetInCU: 0x17B29, offset: 0x17B29, size: 0x8, addend: 0x0, symName: __ZNSt6vectorI18ReservationStationSaIS0_EEixEm, symObjAddr: 0x37E8, symBinAddr: 0x10000ADA0, symSize: 0x34 }
  - { offsetInCU: 0x17B61, offset: 0x17B61, size: 0x8, addend: 0x0, symName: __ZNSt6vectorI11InstructionSaIS0_EEixEm, symObjAddr: 0x37B4, symBinAddr: 0x10000AD6C, symSize: 0x34 }
  - { offsetInCU: 0x17B99, offset: 0x17B99, size: 0x8, addend: 0x0, symName: __ZNKSt6vectorI11InstructionSaIS0_EE4sizeEv, symObjAddr: 0x3778, symBinAddr: 0x10000AD30, symSize: 0x3C }
  - { offsetInCU: 0x17C5B, offset: 0x17C5B, size: 0x8, addend: 0x0, symName: __ZNSt7__cxx1112basic_stringIcSt11char_traitsIcESaIcEE12_Alloc_hiderD1Ev, symObjAddr: 0x374C, symBinAddr: 0x10000AD04, symSize: 0x2C }
  - { offsetInCU: 0x17C7D, offset: 0x17C7D, size: 0x8, addend: 0x0, symName: __ZN9__gnu_cxx6__stoaIlicJiEEET0_PFT_PKT1_PPS3_DpT2_EPKcS5_PmS9_, symObjAddr: 0x3648, symBinAddr: 0x10000AC00, symSize: 0x104 }
  - { offsetInCU: 0x17E00, offset: 0x17E00, size: 0x8, addend: 0x0, symName: __ZZN9__gnu_cxx6__stoaIlicJiEEET0_PFT_PKT1_PPS3_DpT2_EPKcS5_PmS9_EN11_Save_errnoC1Ev, symObjAddr: 0x3588, symBinAddr: 0x10000AB40, symSize: 0x30 }
  - { offsetInCU: 0x17E2B, offset: 0x17E2B, size: 0x8, addend: 0x0, symName: __ZZN9__gnu_cxx6__stoaIlicJiEEET0_PFT_PKT1_PPS3_DpT2_EPKcS5_PmS9_EN11_Save_errnoD1Ev, symObjAddr: 0x35B8, symBinAddr: 0x10000AB70, symSize: 0x50 }
  - { offsetInCU: 0x17EAF, offset: 0x17EAF, size: 0x8, addend: 0x0, symName: __ZZN9__gnu_cxx6__stoaIlicJiEEET0_PFT_PKT1_PPS3_DpT2_EPKcS5_PmS9_EN10_Range_chk6_S_chkElSt17integral_constantIbLb1EE, symObjAddr: 0x3608, symBinAddr: 0x10000ABC0, symSize: 0x40 }
  - { offsetInCU: 0x17E7D, offset: 0x17E7D, size: 0x8, addend: 0x0, symName: __ZN9__gnu_cxx11char_traitsIcE6lengthEPKc, symObjAddr: 0x3530, symBinAddr: 0x10000AAE8, symSize: 0x58 }
  - { offsetInCU: 0x17EBD, offset: 0x17EBD, size: 0x8, addend: 0x0, symName: _main, symObjAddr: 0x2E7C, symBinAddr: 0x10000A434, symSize: 0x6B4 }
  - { offsetInCU: 0x1827C, offset: 0x1827C, size: 0x8, addend: 0x0, symName: __ZNSt6vectorI11InstructionSaIS0_EEC1Ev, symObjAddr: 0x2E5C, symBinAddr: 0x10000A414, symSize: 0x20 }
  - { offsetInCU: 0x182C1, offset: 0x182C1, size: 0x8, addend: 0x0, symName: __ZNSt12_Vector_baseI11InstructionSaIS0_EEC2Ev, symObjAddr: 0x2E3C, symBinAddr: 0x10000A3F4, symSize: 0x20 }
  - { offsetInCU: 0x1831A, offset: 0x1831A, size: 0x8, addend: 0x0, symName: __ZNSt12_Vector_baseI11InstructionSaIS0_EE12_Vector_implD1Ev, symObjAddr: 0x2E10, symBinAddr: 0x10000A3C8, symSize: 0x2C }
  - { offsetInCU: 0x1832B, offset: 0x1832B, size: 0x8, addend: 0x0, symName: __ZN13printer_class16printTimingTableESt6vectorI11InstructionSaIS1_EE, symObjAddr: 0x2930, symBinAddr: 0x100009EE8, symSize: 0x4E0 }
  - { offsetInCU: 0x183C7, offset: 0x183C7, size: 0x8, addend: 0x0, symName: __ZN13printer_class14printRegistersESt6vectorIiSaIiEE, symObjAddr: 0x2874, symBinAddr: 0x100009E2C, symSize: 0xBC }
  - { offsetInCU: 0x18423, offset: 0x18423, size: 0x8, addend: 0x0, symName: __ZN13printer_class19printRegisterStatusESt6vectorI14RegisterStatusSaIS1_EE, symObjAddr: 0x27B8, symBinAddr: 0x100009D70, symSize: 0xBC }
  - { offsetInCU: 0x1847F, offset: 0x1847F, size: 0x8, addend: 0x0, symName: __ZN13decoder_class7decoderERSt6vectorI11InstructionSaIS1_EE, symObjAddr: 0x2044, symBinAddr: 0x1000095FC, symSize: 0x774 }
  - { offsetInCU: 0x18887, offset: 0x18887, size: 0x8, addend: 0x0, symName: __ZNSt6vectorINSt7__cxx1112basic_stringIcSt11char_traitsIcESaIcEEESaIS5_EEC1Ev, symObjAddr: 0x2024, symBinAddr: 0x1000095DC, symSize: 0x20 }
  - { offsetInCU: 0x188CC, offset: 0x188CC, size: 0x8, addend: 0x0, symName: __ZNSt12_Vector_baseINSt7__cxx1112basic_stringIcSt11char_traitsIcESaIcEEESaIS5_EEC2Ev, symObjAddr: 0x2004, symBinAddr: 0x1000095BC, symSize: 0x20 }
  - { offsetInCU: 0x18925, offset: 0x18925, size: 0x8, addend: 0x0, symName: __ZNSt12_Vector_baseINSt7__cxx1112basic_stringIcSt11char_traitsIcESaIcEEESaIS5_EE12_Vector_implD1Ev, symObjAddr: 0x1FD8, symBinAddr: 0x100009590, symSize: 0x2C }
  - { offsetInCU: 0x1890F, offset: 0x1890F, size: 0x8, addend: 0x0, symName: __ZN13decoder_class22repeatLoopInstructionsERSt6vectorI11InstructionSaIS1_EE, symObjAddr: 0x1D6C, symBinAddr: 0x100009324, symSize: 0x26C }
  - { offsetInCU: 0x18A3B, offset: 0x18A3B, size: 0x8, addend: 0x0, symName: __ZZN13decoder_class22repeatLoopInstructionsERSt6vectorI11InstructionSaIS1_EEENKUlRKS1_E_clES6_, symObjAddr: 0x1D1C, symBinAddr: 0x1000092D4, symSize: 0x28 }
  - { offsetInCU: 0x18AFB, offset: 0x18AFB, size: 0x8, addend: 0x0, symName: __ZZN13decoder_class22repeatLoopInstructionsERSt6vectorI11InstructionSaIS1_EEENKUlRKS1_E0_clES6_, symObjAddr: 0x1D44, symBinAddr: 0x1000092FC, symSize: 0x28 }
  - { offsetInCU: 0x18BBA, offset: 0x18BBA, size: 0x8, addend: 0x0, symName: __ZN9writeback9WRITEBACKERSt6vectorI11InstructionSaIS1_EERS0_I18ReservationStationSaIS5_EERS0_I14RegisterStatusSaIS9_EERS0_IiSaIiEE, symObjAddr: 0x1960, symBinAddr: 0x100008F18, symSize: 0x3BC }
  - { offsetInCU: 0x18C87, offset: 0x18C87, size: 0x8, addend: 0x0, symName: __ZN9writeback11getInstanceEv, symObjAddr: 0x18E4, symBinAddr: 0x100008E9C, symSize: 0x7C }
  - { offsetInCU: 0x18CD1, offset: 0x18CD1, size: 0x8, addend: 0x0, symName: __ZZN9writeback11getInstanceEvE8instance, symObjAddr: 0x9928, symBinAddr: 0x10001CD20, symSize: 0x0 }
  - { offsetInCU: 0x18CE5, offset: 0x18CE5, size: 0x8, addend: 0x0, symName: __ZN9writebackC1Ev, symObjAddr: 0x18D0, symBinAddr: 0x100008E88, symSize: 0x14 }
  - { offsetInCU: 0x18CFD, offset: 0x18CFD, size: 0x8, addend: 0x0, symName: __ZN7execute7EXECUTEERSt6vectorI11InstructionSaIS1_EERS0_I18ReservationStationSaIS5_EERS0_I14RegisterStatusSaIS9_EERS0_IiSaIiEE, symObjAddr: 0x1164, symBinAddr: 0x10000871C, symSize: 0x76C }
  - { offsetInCU: 0x18D7F, offset: 0x18D7F, size: 0x8, addend: 0x0, symName: __ZN7execute11getInstanceEv, symObjAddr: 0x10E8, symBinAddr: 0x1000086A0, symSize: 0x7C }
  - { offsetInCU: 0x18DC6, offset: 0x18DC6, size: 0x8, addend: 0x0, symName: __ZZN7execute11getInstanceEvE8instance, symObjAddr: 0x9918, symBinAddr: 0x10001CD10, symSize: 0x0 }
  - { offsetInCU: 0x18DDA, offset: 0x18DDA, size: 0x8, addend: 0x0, symName: __ZN7executeC1Ev, symObjAddr: 0x10D4, symBinAddr: 0x10000868C, symSize: 0x14 }
  - { offsetInCU: 0x18DF4, offset: 0x18DF4, size: 0x8, addend: 0x0, symName: __ZN5issue5ISSUEERSt6vectorI11InstructionSaIS1_EERS0_I18ReservationStationSaIS5_EERS0_I14RegisterStatusSaIS9_EERS0_IiSaIiEE, symObjAddr: 0x8C4, symBinAddr: 0x100007E7C, symSize: 0x810 }
  - { offsetInCU: 0x18F99, offset: 0x18F99, size: 0x8, addend: 0x0, symName: __ZN5issue11getInstanceEv, symObjAddr: 0x848, symBinAddr: 0x100007E00, symSize: 0x7C }
  - { offsetInCU: 0x18FE1, offset: 0x18FE1, size: 0x8, addend: 0x0, symName: __ZZN5issue11getInstanceEvE7instace, symObjAddr: 0x9904, symBinAddr: 0x10001CCFC, symSize: 0x0 }
  - { offsetInCU: 0x18FF2, offset: 0x18FF2, size: 0x8, addend: 0x0, symName: __ZN5issueC1Ev, symObjAddr: 0x824, symBinAddr: 0x100007DDC, symSize: 0x24 }
  - { offsetInCU: 0x1905A, offset: 0x1905A, size: 0x8, addend: 0x0, symName: __ZN18ReservationStationC1Eii, symObjAddr: 0x790, symBinAddr: 0x100007D48, symSize: 0x94 }
  - { offsetInCU: 0x19096, offset: 0x19096, size: 0x8, addend: 0x0, symName: __ZN18ReservationStationC2Eii, symObjAddr: 0x6FC, symBinAddr: 0x100007CB4, symSize: 0x94 }
  - { offsetInCU: 0x190E8, offset: 0x190E8, size: 0x8, addend: 0x0, symName: __ZN18ReservationStationC1Ev, symObjAddr: 0x678, symBinAddr: 0x100007C30, symSize: 0x84 }
  - { offsetInCU: 0x19112, offset: 0x19112, size: 0x8, addend: 0x0, symName: __ZN18ReservationStationC2Ev, symObjAddr: 0x5F4, symBinAddr: 0x100007BAC, symSize: 0x84 }
  - { offsetInCU: 0x1915B, offset: 0x1915B, size: 0x8, addend: 0x0, symName: __ZN14RegisterStatusC1Ei, symObjAddr: 0x5C4, symBinAddr: 0x100007B7C, symSize: 0x30 }
  - { offsetInCU: 0x1918E, offset: 0x1918E, size: 0x8, addend: 0x0, symName: __ZN14RegisterStatusC2Ei, symObjAddr: 0x594, symBinAddr: 0x100007B4C, symSize: 0x30 }
  - { offsetInCU: 0x191D8, offset: 0x191D8, size: 0x8, addend: 0x0, symName: __ZN14RegisterStatusC1Ev, symObjAddr: 0x56C, symBinAddr: 0x100007B24, symSize: 0x28 }
  - { offsetInCU: 0x19202, offset: 0x19202, size: 0x8, addend: 0x0, symName: __ZN14RegisterStatusC2Ev, symObjAddr: 0x544, symBinAddr: 0x100007AFC, symSize: 0x28 }
  - { offsetInCU: 0x19280, offset: 0x19280, size: 0x8, addend: 0x0, symName: __ZN11InstructionC1Eiiiii, symObjAddr: 0x4C0, symBinAddr: 0x100007A78, symSize: 0x84 }
  - { offsetInCU: 0x192D7, offset: 0x192D7, size: 0x8, addend: 0x0, symName: __ZN11InstructionC2Eiiiii, symObjAddr: 0x43C, symBinAddr: 0x1000079F4, symSize: 0x84 }
  - { offsetInCU: 0x19341, offset: 0x19341, size: 0x8, addend: 0x0, symName: __ZN11InstructionC1Ev, symObjAddr: 0x3E0, symBinAddr: 0x100007998, symSize: 0x5C }
  - { offsetInCU: 0x1936B, offset: 0x1936B, size: 0x8, addend: 0x0, symName: __ZN11InstructionC2Ev, symObjAddr: 0x384, symBinAddr: 0x10000793C, symSize: 0x5C }
  - { offsetInCU: 0x1937C, offset: 0x1937C, size: 0x8, addend: 0x0, symName: __ZSt4setwi, symObjAddr: 0x370, symBinAddr: 0x100007928, symSize: 0x14 }
  - { offsetInCU: 0x193A3, offset: 0x193A3, size: 0x8, addend: 0x0, symName: __ZSt5rightRSt8ios_base, symObjAddr: 0x348, symBinAddr: 0x100007900, symSize: 0x28 }
  - { offsetInCU: 0x193CB, offset: 0x193CB, size: 0x8, addend: 0x0, symName: __ZSt4leftRSt8ios_base, symObjAddr: 0x320, symBinAddr: 0x1000078D8, symSize: 0x28 }
  - { offsetInCU: 0x19402, offset: 0x19402, size: 0x8, addend: 0x0, symName: __ZNSt8ios_base4setfESt13_Ios_FmtflagsS0_, symObjAddr: 0x2C0, symBinAddr: 0x100007878, symSize: 0x60 }
  - { offsetInCU: 0x19456, offset: 0x19456, size: 0x8, addend: 0x0, symName: __ZStorSt13_Ios_OpenmodeS_, symObjAddr: 0x2A0, symBinAddr: 0x100007858, symSize: 0x20 }
  - { offsetInCU: 0x19498, offset: 0x19498, size: 0x8, addend: 0x0, symName: __ZStaNRSt13_Ios_FmtflagsS_, symObjAddr: 0x268, symBinAddr: 0x100007820, symSize: 0x38 }
  - { offsetInCU: 0x194CE, offset: 0x194CE, size: 0x8, addend: 0x0, symName: __ZStoRRSt13_Ios_FmtflagsS_, symObjAddr: 0x230, symBinAddr: 0x1000077E8, symSize: 0x38 }
  - { offsetInCU: 0x19504, offset: 0x19504, size: 0x8, addend: 0x0, symName: __ZStcoSt13_Ios_Fmtflags, symObjAddr: 0x218, symBinAddr: 0x1000077D0, symSize: 0x18 }
  - { offsetInCU: 0x1952B, offset: 0x1952B, size: 0x8, addend: 0x0, symName: __ZStorSt13_Ios_FmtflagsS_, symObjAddr: 0x1F8, symBinAddr: 0x1000077B0, symSize: 0x20 }
  - { offsetInCU: 0x19561, offset: 0x19561, size: 0x8, addend: 0x0, symName: __ZStanSt13_Ios_FmtflagsS_, symObjAddr: 0x1D8, symBinAddr: 0x100007790, symSize: 0x20 }
  - { offsetInCU: 0x19597, offset: 0x19597, size: 0x8, addend: 0x0, symName: __ZNSt7__cxx114stoiERKNS_12basic_stringIcSt11char_traitsIcESaIcEEEPmi, symObjAddr: 0x194, symBinAddr: 0x10000774C, symSize: 0x44 }
  - { offsetInCU: 0x195DF, offset: 0x195DF, size: 0x8, addend: 0x0, symName: __ZNSt11char_traitsIcE6lengthEPKc, symObjAddr: 0x158, symBinAddr: 0x100007710, symSize: 0x3C }
  - { offsetInCU: 0x19621, offset: 0x19621, size: 0x8, addend: 0x0, symName: __ZNSt11char_traitsIcE7compareEPKcS2_m, symObjAddr: 0x68, symBinAddr: 0x100007620, symSize: 0xF0 }
  - { offsetInCU: 0x196A6, offset: 0x196A6, size: 0x8, addend: 0x0, symName: __ZNSt11char_traitsIcE2ltERKcS2_, symObjAddr: 0x30, symBinAddr: 0x1000075E8, symSize: 0x38 }
  - { offsetInCU: 0x196EB, offset: 0x196EB, size: 0x8, addend: 0x0, symName: __ZdlPvS_, symObjAddr: 0x18, symBinAddr: 0x1000075D0, symSize: 0x18 }
  - { offsetInCU: 0x19720, offset: 0x19720, size: 0x8, addend: 0x0, symName: __ZnwmPv, symObjAddr: 0x0, symBinAddr: 0x1000075B8, symSize: 0x18 }
...
